// This file is generated from a similarly-named Perl script in the BoringSSL
// source tree. Do not edit by hand.

#if defined(__has_feature)
#if __has_feature(memory_sanitizer) && !defined(OPENSSL_NO_ASM)
#define OPENSSL_NO_ASM
#endif
#endif

#if defined(__x86_64__) && !defined(OPENSSL_NO_ASM)
#if defined(BORINGSSL_PREFIX)
#include <boringssl_prefix_symbols_asm.h>
#endif
.text	
.globl	gcm_init_avx512
.hidden gcm_init_avx512
.hidden	gcm_init_avx512
.type	gcm_init_avx512,@function
.align	32
gcm_init_avx512:
.cfi_startproc	
.byte	243,15,30,250
	vmovdqu64	(%rsi),%xmm16
	vpalignr	$8,%xmm16,%xmm16,%xmm16

	vmovdqa64	%xmm16,%xmm2
	vpsllq	$1,%xmm16,%xmm16
	vpsrlq	$63,%xmm2,%xmm2
	vmovdqa	%xmm2,%xmm1
	vpslldq	$8,%xmm2,%xmm2
	vpsrldq	$8,%xmm1,%xmm1
	vporq	%xmm2,%xmm16,%xmm16

	vpshufd	$36,%xmm1,%xmm2
	vpcmpeqd	TWOONE(%rip),%xmm2,%xmm2
	vpand	POLY(%rip),%xmm2,%xmm2
	vpxorq	%xmm2,%xmm16,%xmm16

	vmovdqu64	%xmm16,240(%rdi)
	vshufi32x4	$0x00,%ymm16,%ymm16,%ymm4
	vmovdqa	%ymm4,%ymm3

	vpclmulqdq	$0x11,%ymm4,%ymm3,%ymm0
	vpclmulqdq	$0x00,%ymm4,%ymm3,%ymm1
	vpclmulqdq	$0x01,%ymm4,%ymm3,%ymm2
	vpclmulqdq	$0x10,%ymm4,%ymm3,%ymm3
	vpxorq	%ymm2,%ymm3,%ymm3

	vpsrldq	$8,%ymm3,%ymm2
	vpslldq	$8,%ymm3,%ymm3
	vpxorq	%ymm2,%ymm0,%ymm0
	vpxorq	%ymm1,%ymm3,%ymm3



	vmovdqu64	POLY2(%rip),%ymm2

	vpclmulqdq	$0x01,%ymm3,%ymm2,%ymm1
	vpslldq	$8,%ymm1,%ymm1
	vpxorq	%ymm1,%ymm3,%ymm3



	vpclmulqdq	$0x00,%ymm3,%ymm2,%ymm1
	vpsrldq	$4,%ymm1,%ymm1
	vpclmulqdq	$0x10,%ymm3,%ymm2,%ymm3
	vpslldq	$4,%ymm3,%ymm3

	vpternlogq	$0x96,%ymm1,%ymm0,%ymm3

	vmovdqu64	%xmm3,224(%rdi)
	vinserti64x2	$1,%xmm16,%ymm3,%ymm4
	vmovdqa64	%ymm4,%ymm5

	vpclmulqdq	$0x11,%ymm3,%ymm4,%ymm0
	vpclmulqdq	$0x00,%ymm3,%ymm4,%ymm1
	vpclmulqdq	$0x01,%ymm3,%ymm4,%ymm2
	vpclmulqdq	$0x10,%ymm3,%ymm4,%ymm4
	vpxorq	%ymm2,%ymm4,%ymm4

	vpsrldq	$8,%ymm4,%ymm2
	vpslldq	$8,%ymm4,%ymm4
	vpxorq	%ymm2,%ymm0,%ymm0
	vpxorq	%ymm1,%ymm4,%ymm4



	vmovdqu64	POLY2(%rip),%ymm2

	vpclmulqdq	$0x01,%ymm4,%ymm2,%ymm1
	vpslldq	$8,%ymm1,%ymm1
	vpxorq	%ymm1,%ymm4,%ymm4



	vpclmulqdq	$0x00,%ymm4,%ymm2,%ymm1
	vpsrldq	$4,%ymm1,%ymm1
	vpclmulqdq	$0x10,%ymm4,%ymm2,%ymm4
	vpslldq	$4,%ymm4,%ymm4

	vpternlogq	$0x96,%ymm1,%ymm0,%ymm4

	vmovdqu64	%ymm4,192(%rdi)

	vinserti64x4	$1,%ymm5,%zmm4,%zmm4


	vshufi64x2	$0x00,%zmm4,%zmm4,%zmm3
	vmovdqa64	%zmm4,%zmm5

	vpclmulqdq	$0x11,%zmm3,%zmm4,%zmm0
	vpclmulqdq	$0x00,%zmm3,%zmm4,%zmm1
	vpclmulqdq	$0x01,%zmm3,%zmm4,%zmm2
	vpclmulqdq	$0x10,%zmm3,%zmm4,%zmm4
	vpxorq	%zmm2,%zmm4,%zmm4

	vpsrldq	$8,%zmm4,%zmm2
	vpslldq	$8,%zmm4,%zmm4
	vpxorq	%zmm2,%zmm0,%zmm0
	vpxorq	%zmm1,%zmm4,%zmm4



	vmovdqu64	POLY2(%rip),%zmm2

	vpclmulqdq	$0x01,%zmm4,%zmm2,%zmm1
	vpslldq	$8,%zmm1,%zmm1
	vpxorq	%zmm1,%zmm4,%zmm4



	vpclmulqdq	$0x00,%zmm4,%zmm2,%zmm1
	vpsrldq	$4,%zmm1,%zmm1
	vpclmulqdq	$0x10,%zmm4,%zmm2,%zmm4
	vpslldq	$4,%zmm4,%zmm4

	vpternlogq	$0x96,%zmm1,%zmm0,%zmm4

	vmovdqu64	%zmm4,128(%rdi)
	vshufi64x2	$0x00,%zmm4,%zmm4,%zmm3

	vpclmulqdq	$0x11,%zmm3,%zmm5,%zmm0
	vpclmulqdq	$0x00,%zmm3,%zmm5,%zmm1
	vpclmulqdq	$0x01,%zmm3,%zmm5,%zmm2
	vpclmulqdq	$0x10,%zmm3,%zmm5,%zmm5
	vpxorq	%zmm2,%zmm5,%zmm5

	vpsrldq	$8,%zmm5,%zmm2
	vpslldq	$8,%zmm5,%zmm5
	vpxorq	%zmm2,%zmm0,%zmm0
	vpxorq	%zmm1,%zmm5,%zmm5



	vmovdqu64	POLY2(%rip),%zmm2

	vpclmulqdq	$0x01,%zmm5,%zmm2,%zmm1
	vpslldq	$8,%zmm1,%zmm1
	vpxorq	%zmm1,%zmm5,%zmm5



	vpclmulqdq	$0x00,%zmm5,%zmm2,%zmm1
	vpsrldq	$4,%zmm1,%zmm1
	vpclmulqdq	$0x10,%zmm5,%zmm2,%zmm5
	vpslldq	$4,%zmm5,%zmm5

	vpternlogq	$0x96,%zmm1,%zmm0,%zmm5

	vmovdqu64	%zmm5,64(%rdi)

	vpclmulqdq	$0x11,%zmm3,%zmm4,%zmm0
	vpclmulqdq	$0x00,%zmm3,%zmm4,%zmm1
	vpclmulqdq	$0x01,%zmm3,%zmm4,%zmm2
	vpclmulqdq	$0x10,%zmm3,%zmm4,%zmm4
	vpxorq	%zmm2,%zmm4,%zmm4

	vpsrldq	$8,%zmm4,%zmm2
	vpslldq	$8,%zmm4,%zmm4
	vpxorq	%zmm2,%zmm0,%zmm0
	vpxorq	%zmm1,%zmm4,%zmm4



	vmovdqu64	POLY2(%rip),%zmm2

	vpclmulqdq	$0x01,%zmm4,%zmm2,%zmm1
	vpslldq	$8,%zmm1,%zmm1
	vpxorq	%zmm1,%zmm4,%zmm4



	vpclmulqdq	$0x00,%zmm4,%zmm2,%zmm1
	vpsrldq	$4,%zmm1,%zmm1
	vpclmulqdq	$0x10,%zmm4,%zmm2,%zmm4
	vpslldq	$4,%zmm4,%zmm4

	vpternlogq	$0x96,%zmm1,%zmm0,%zmm4

	vmovdqu64	%zmm4,0(%rdi)
	vzeroupper
.Lexit_init:
	.byte	0xf3,0xc3
.cfi_endproc	
.size	gcm_init_avx512, .-gcm_init_avx512
.globl	gcm_gmult_avx512
.hidden gcm_gmult_avx512
.hidden	gcm_gmult_avx512
.type	gcm_gmult_avx512,@function
.align	32
gcm_gmult_avx512:
.cfi_startproc	
.byte	243,15,30,250
	vmovdqu64	(%rdi),%xmm1


	vpshufb	SHUF_MASK(%rip),%xmm1,%xmm1
	vmovdqu64	240(%rsi),%xmm2

	vpclmulqdq	$0x11,%xmm2,%xmm1,%xmm3
	vpclmulqdq	$0x00,%xmm2,%xmm1,%xmm4
	vpclmulqdq	$0x01,%xmm2,%xmm1,%xmm5
	vpclmulqdq	$0x10,%xmm2,%xmm1,%xmm1
	vpxorq	%xmm5,%xmm1,%xmm1

	vpsrldq	$8,%xmm1,%xmm5
	vpslldq	$8,%xmm1,%xmm1
	vpxorq	%xmm5,%xmm3,%xmm3
	vpxorq	%xmm4,%xmm1,%xmm1



	vmovdqu64	POLY2(%rip),%xmm5

	vpclmulqdq	$0x01,%xmm1,%xmm5,%xmm4
	vpslldq	$8,%xmm4,%xmm4
	vpxorq	%xmm4,%xmm1,%xmm1



	vpclmulqdq	$0x00,%xmm1,%xmm5,%xmm4
	vpsrldq	$4,%xmm4,%xmm4
	vpclmulqdq	$0x10,%xmm1,%xmm5,%xmm1
	vpslldq	$4,%xmm1,%xmm1

	vpternlogq	$0x96,%xmm4,%xmm3,%xmm1

	vpshufb	SHUF_MASK(%rip),%xmm1,%xmm1
	vmovdqu64	%xmm1,(%rdi)
	vzeroupper
.Lexit_gmult:
	.byte	0xf3,0xc3
.cfi_endproc	
.size	gcm_gmult_avx512, .-gcm_gmult_avx512
.globl	gcm_ghash_avx512
.hidden gcm_ghash_avx512
.hidden	gcm_ghash_avx512
.type	gcm_ghash_avx512,@function
.align	32
gcm_ghash_avx512:
.cfi_startproc	
.Lghash_seh_begin:
.byte	243,15,30,250
	pushq	%rbx
.cfi_adjust_cfa_offset	8
.cfi_offset	%rbx,-16
.Lghash_seh_push_rbx:
	pushq	%rbp
.cfi_adjust_cfa_offset	8
.cfi_offset	%rbp,-24
.Lghash_seh_push_rbp:
	pushq	%r12
.cfi_adjust_cfa_offset	8
.cfi_offset	%r12,-32
.Lghash_seh_push_r12:
	pushq	%r13
.cfi_adjust_cfa_offset	8
.cfi_offset	%r13,-40
.Lghash_seh_push_r13:
	pushq	%r14
.cfi_adjust_cfa_offset	8
.cfi_offset	%r14,-48
.Lghash_seh_push_r14:
	pushq	%r15
.cfi_adjust_cfa_offset	8
.cfi_offset	%r15,-56
.Lghash_seh_push_r15:










	leaq	0(%rsp),%rbp
.cfi_def_cfa_register	%rbp
.Lghash_seh_setfp:

.Lghash_seh_prolog_end:
	subq	$820,%rsp
	andq	$(-64),%rsp
	vmovdqu64	(%rdi),%xmm14
	vpshufb	SHUF_MASK(%rip),%xmm14,%xmm14
	movq	%rdx,%r10
	movq	%rcx,%r11
	orq	%r11,%r11
	jz	.L_CALC_AAD_done_ctCFsBDDuiFxwGt

	xorq	%rbx,%rbx
	vmovdqa64	SHUF_MASK(%rip),%zmm16

.L_get_AAD_loop48x16_ctCFsBDDuiFxwGt:
	cmpq	$768,%r11
	jl	.L_exit_AAD_loop48x16_ctCFsBDDuiFxwGt
	vmovdqu64	0(%r10),%zmm11
	vmovdqu64	64(%r10),%zmm3
	vmovdqu64	128(%r10),%zmm4
	vmovdqu64	192(%r10),%zmm5
	vpshufb	%zmm16,%zmm11,%zmm11
	vpshufb	%zmm16,%zmm3,%zmm3
	vpshufb	%zmm16,%zmm4,%zmm4
	vpshufb	%zmm16,%zmm5,%zmm5
	testq	%rbx,%rbx
	jnz	.L_skip_hkeys_precomputation_giEkdymikjhCkyA

	vmovdqu64	192(%rsi),%zmm1
	vmovdqu64	%zmm1,704(%rsp)

	vmovdqu64	128(%rsi),%zmm9
	vmovdqu64	%zmm9,640(%rsp)


	vshufi64x2	$0x00,%zmm9,%zmm9,%zmm9

	vmovdqu64	64(%rsi),%zmm10
	vmovdqu64	%zmm10,576(%rsp)

	vmovdqu64	0(%rsi),%zmm12
	vmovdqu64	%zmm12,512(%rsp)

	vpclmulqdq	$0x11,%zmm9,%zmm10,%zmm13
	vpclmulqdq	$0x00,%zmm9,%zmm10,%zmm15
	vpclmulqdq	$0x01,%zmm9,%zmm10,%zmm17
	vpclmulqdq	$0x10,%zmm9,%zmm10,%zmm10
	vpxorq	%zmm17,%zmm10,%zmm10

	vpsrldq	$8,%zmm10,%zmm17
	vpslldq	$8,%zmm10,%zmm10
	vpxorq	%zmm17,%zmm13,%zmm13
	vpxorq	%zmm15,%zmm10,%zmm10



	vmovdqu64	POLY2(%rip),%zmm17

	vpclmulqdq	$0x01,%zmm10,%zmm17,%zmm15
	vpslldq	$8,%zmm15,%zmm15
	vpxorq	%zmm15,%zmm10,%zmm10



	vpclmulqdq	$0x00,%zmm10,%zmm17,%zmm15
	vpsrldq	$4,%zmm15,%zmm15
	vpclmulqdq	$0x10,%zmm10,%zmm17,%zmm10
	vpslldq	$4,%zmm10,%zmm10

	vpternlogq	$0x96,%zmm15,%zmm13,%zmm10

	vmovdqu64	%zmm10,448(%rsp)

	vpclmulqdq	$0x11,%zmm9,%zmm12,%zmm13
	vpclmulqdq	$0x00,%zmm9,%zmm12,%zmm15
	vpclmulqdq	$0x01,%zmm9,%zmm12,%zmm17
	vpclmulqdq	$0x10,%zmm9,%zmm12,%zmm12
	vpxorq	%zmm17,%zmm12,%zmm12

	vpsrldq	$8,%zmm12,%zmm17
	vpslldq	$8,%zmm12,%zmm12
	vpxorq	%zmm17,%zmm13,%zmm13
	vpxorq	%zmm15,%zmm12,%zmm12



	vmovdqu64	POLY2(%rip),%zmm17

	vpclmulqdq	$0x01,%zmm12,%zmm17,%zmm15
	vpslldq	$8,%zmm15,%zmm15
	vpxorq	%zmm15,%zmm12,%zmm12



	vpclmulqdq	$0x00,%zmm12,%zmm17,%zmm15
	vpsrldq	$4,%zmm15,%zmm15
	vpclmulqdq	$0x10,%zmm12,%zmm17,%zmm12
	vpslldq	$4,%zmm12,%zmm12

	vpternlogq	$0x96,%zmm15,%zmm13,%zmm12

	vmovdqu64	%zmm12,384(%rsp)

	vpclmulqdq	$0x11,%zmm9,%zmm10,%zmm13
	vpclmulqdq	$0x00,%zmm9,%zmm10,%zmm15
	vpclmulqdq	$0x01,%zmm9,%zmm10,%zmm17
	vpclmulqdq	$0x10,%zmm9,%zmm10,%zmm10
	vpxorq	%zmm17,%zmm10,%zmm10

	vpsrldq	$8,%zmm10,%zmm17
	vpslldq	$8,%zmm10,%zmm10
	vpxorq	%zmm17,%zmm13,%zmm13
	vpxorq	%zmm15,%zmm10,%zmm10



	vmovdqu64	POLY2(%rip),%zmm17

	vpclmulqdq	$0x01,%zmm10,%zmm17,%zmm15
	vpslldq	$8,%zmm15,%zmm15
	vpxorq	%zmm15,%zmm10,%zmm10



	vpclmulqdq	$0x00,%zmm10,%zmm17,%zmm15
	vpsrldq	$4,%zmm15,%zmm15
	vpclmulqdq	$0x10,%zmm10,%zmm17,%zmm10
	vpslldq	$4,%zmm10,%zmm10

	vpternlogq	$0x96,%zmm15,%zmm13,%zmm10

	vmovdqu64	%zmm10,320(%rsp)

	vpclmulqdq	$0x11,%zmm9,%zmm12,%zmm13
	vpclmulqdq	$0x00,%zmm9,%zmm12,%zmm15
	vpclmulqdq	$0x01,%zmm9,%zmm12,%zmm17
	vpclmulqdq	$0x10,%zmm9,%zmm12,%zmm12
	vpxorq	%zmm17,%zmm12,%zmm12

	vpsrldq	$8,%zmm12,%zmm17
	vpslldq	$8,%zmm12,%zmm12
	vpxorq	%zmm17,%zmm13,%zmm13
	vpxorq	%zmm15,%zmm12,%zmm12



	vmovdqu64	POLY2(%rip),%zmm17

	vpclmulqdq	$0x01,%zmm12,%zmm17,%zmm15
	vpslldq	$8,%zmm15,%zmm15
	vpxorq	%zmm15,%zmm12,%zmm12



	vpclmulqdq	$0x00,%zmm12,%zmm17,%zmm15
	vpsrldq	$4,%zmm15,%zmm15
	vpclmulqdq	$0x10,%zmm12,%zmm17,%zmm12
	vpslldq	$4,%zmm12,%zmm12

	vpternlogq	$0x96,%zmm15,%zmm13,%zmm12

	vmovdqu64	%zmm12,256(%rsp)

	vpclmulqdq	$0x11,%zmm9,%zmm10,%zmm13
	vpclmulqdq	$0x00,%zmm9,%zmm10,%zmm15
	vpclmulqdq	$0x01,%zmm9,%zmm10,%zmm17
	vpclmulqdq	$0x10,%zmm9,%zmm10,%zmm10
	vpxorq	%zmm17,%zmm10,%zmm10

	vpsrldq	$8,%zmm10,%zmm17
	vpslldq	$8,%zmm10,%zmm10
	vpxorq	%zmm17,%zmm13,%zmm13
	vpxorq	%zmm15,%zmm10,%zmm10



	vmovdqu64	POLY2(%rip),%zmm17

	vpclmulqdq	$0x01,%zmm10,%zmm17,%zmm15
	vpslldq	$8,%zmm15,%zmm15
	vpxorq	%zmm15,%zmm10,%zmm10



	vpclmulqdq	$0x00,%zmm10,%zmm17,%zmm15
	vpsrldq	$4,%zmm15,%zmm15
	vpclmulqdq	$0x10,%zmm10,%zmm17,%zmm10
	vpslldq	$4,%zmm10,%zmm10

	vpternlogq	$0x96,%zmm15,%zmm13,%zmm10

	vmovdqu64	%zmm10,192(%rsp)

	vpclmulqdq	$0x11,%zmm9,%zmm12,%zmm13
	vpclmulqdq	$0x00,%zmm9,%zmm12,%zmm15
	vpclmulqdq	$0x01,%zmm9,%zmm12,%zmm17
	vpclmulqdq	$0x10,%zmm9,%zmm12,%zmm12
	vpxorq	%zmm17,%zmm12,%zmm12

	vpsrldq	$8,%zmm12,%zmm17
	vpslldq	$8,%zmm12,%zmm12
	vpxorq	%zmm17,%zmm13,%zmm13
	vpxorq	%zmm15,%zmm12,%zmm12



	vmovdqu64	POLY2(%rip),%zmm17

	vpclmulqdq	$0x01,%zmm12,%zmm17,%zmm15
	vpslldq	$8,%zmm15,%zmm15
	vpxorq	%zmm15,%zmm12,%zmm12



	vpclmulqdq	$0x00,%zmm12,%zmm17,%zmm15
	vpsrldq	$4,%zmm15,%zmm15
	vpclmulqdq	$0x10,%zmm12,%zmm17,%zmm12
	vpslldq	$4,%zmm12,%zmm12

	vpternlogq	$0x96,%zmm15,%zmm13,%zmm12

	vmovdqu64	%zmm12,128(%rsp)

	vpclmulqdq	$0x11,%zmm9,%zmm10,%zmm13
	vpclmulqdq	$0x00,%zmm9,%zmm10,%zmm15
	vpclmulqdq	$0x01,%zmm9,%zmm10,%zmm17
	vpclmulqdq	$0x10,%zmm9,%zmm10,%zmm10
	vpxorq	%zmm17,%zmm10,%zmm10

	vpsrldq	$8,%zmm10,%zmm17
	vpslldq	$8,%zmm10,%zmm10
	vpxorq	%zmm17,%zmm13,%zmm13
	vpxorq	%zmm15,%zmm10,%zmm10



	vmovdqu64	POLY2(%rip),%zmm17

	vpclmulqdq	$0x01,%zmm10,%zmm17,%zmm15
	vpslldq	$8,%zmm15,%zmm15
	vpxorq	%zmm15,%zmm10,%zmm10



	vpclmulqdq	$0x00,%zmm10,%zmm17,%zmm15
	vpsrldq	$4,%zmm15,%zmm15
	vpclmulqdq	$0x10,%zmm10,%zmm17,%zmm10
	vpslldq	$4,%zmm10,%zmm10

	vpternlogq	$0x96,%zmm15,%zmm13,%zmm10

	vmovdqu64	%zmm10,64(%rsp)

	vpclmulqdq	$0x11,%zmm9,%zmm12,%zmm13
	vpclmulqdq	$0x00,%zmm9,%zmm12,%zmm15
	vpclmulqdq	$0x01,%zmm9,%zmm12,%zmm17
	vpclmulqdq	$0x10,%zmm9,%zmm12,%zmm12
	vpxorq	%zmm17,%zmm12,%zmm12

	vpsrldq	$8,%zmm12,%zmm17
	vpslldq	$8,%zmm12,%zmm12
	vpxorq	%zmm17,%zmm13,%zmm13
	vpxorq	%zmm15,%zmm12,%zmm12



	vmovdqu64	POLY2(%rip),%zmm17

	vpclmulqdq	$0x01,%zmm12,%zmm17,%zmm15
	vpslldq	$8,%zmm15,%zmm15
	vpxorq	%zmm15,%zmm12,%zmm12



	vpclmulqdq	$0x00,%zmm12,%zmm17,%zmm15
	vpsrldq	$4,%zmm15,%zmm15
	vpclmulqdq	$0x10,%zmm12,%zmm17,%zmm12
	vpslldq	$4,%zmm12,%zmm12

	vpternlogq	$0x96,%zmm15,%zmm13,%zmm12

	vmovdqu64	%zmm12,0(%rsp)
.L_skip_hkeys_precomputation_giEkdymikjhCkyA:
	movq	$1,%rbx
	vpxorq	%zmm14,%zmm11,%zmm11
	vmovdqu64	0(%rsp),%zmm19
	vpclmulqdq	$0x11,%zmm19,%zmm11,%zmm1
	vpclmulqdq	$0x00,%zmm19,%zmm11,%zmm9
	vpclmulqdq	$0x01,%zmm19,%zmm11,%zmm10
	vpclmulqdq	$0x10,%zmm19,%zmm11,%zmm12
	vmovdqu64	64(%rsp),%zmm19
	vpclmulqdq	$0x11,%zmm19,%zmm3,%zmm13
	vpclmulqdq	$0x00,%zmm19,%zmm3,%zmm15
	vpclmulqdq	$0x01,%zmm19,%zmm3,%zmm17
	vpclmulqdq	$0x10,%zmm19,%zmm3,%zmm18
	vpxorq	%zmm17,%zmm10,%zmm7
	vpxorq	%zmm13,%zmm1,%zmm6
	vpxorq	%zmm15,%zmm9,%zmm8
	vpternlogq	$0x96,%zmm18,%zmm12,%zmm7
	vmovdqu64	128(%rsp),%zmm19
	vpclmulqdq	$0x11,%zmm19,%zmm4,%zmm1
	vpclmulqdq	$0x00,%zmm19,%zmm4,%zmm9
	vpclmulqdq	$0x01,%zmm19,%zmm4,%zmm10
	vpclmulqdq	$0x10,%zmm19,%zmm4,%zmm12
	vmovdqu64	192(%rsp),%zmm19
	vpclmulqdq	$0x11,%zmm19,%zmm5,%zmm13
	vpclmulqdq	$0x00,%zmm19,%zmm5,%zmm15
	vpclmulqdq	$0x01,%zmm19,%zmm5,%zmm17
	vpclmulqdq	$0x10,%zmm19,%zmm5,%zmm18

	vpternlogq	$0x96,%zmm17,%zmm10,%zmm7
	vpternlogq	$0x96,%zmm13,%zmm1,%zmm6
	vpternlogq	$0x96,%zmm15,%zmm9,%zmm8
	vpternlogq	$0x96,%zmm18,%zmm12,%zmm7
	vmovdqu64	256(%r10),%zmm11
	vmovdqu64	320(%r10),%zmm3
	vmovdqu64	384(%r10),%zmm4
	vmovdqu64	448(%r10),%zmm5
	vpshufb	%zmm16,%zmm11,%zmm11
	vpshufb	%zmm16,%zmm3,%zmm3
	vpshufb	%zmm16,%zmm4,%zmm4
	vpshufb	%zmm16,%zmm5,%zmm5
	vmovdqu64	256(%rsp),%zmm19
	vpclmulqdq	$0x11,%zmm19,%zmm11,%zmm1
	vpclmulqdq	$0x00,%zmm19,%zmm11,%zmm9
	vpclmulqdq	$0x01,%zmm19,%zmm11,%zmm10
	vpclmulqdq	$0x10,%zmm19,%zmm11,%zmm12
	vmovdqu64	320(%rsp),%zmm19
	vpclmulqdq	$0x11,%zmm19,%zmm3,%zmm13
	vpclmulqdq	$0x00,%zmm19,%zmm3,%zmm15
	vpclmulqdq	$0x01,%zmm19,%zmm3,%zmm17
	vpclmulqdq	$0x10,%zmm19,%zmm3,%zmm18
	vpternlogq	$0x96,%zmm17,%zmm10,%zmm7
	vpternlogq	$0x96,%zmm13,%zmm1,%zmm6
	vpternlogq	$0x96,%zmm15,%zmm9,%zmm8
	vpternlogq	$0x96,%zmm18,%zmm12,%zmm7
	vmovdqu64	384(%rsp),%zmm19
	vpclmulqdq	$0x11,%zmm19,%zmm4,%zmm1
	vpclmulqdq	$0x00,%zmm19,%zmm4,%zmm9
	vpclmulqdq	$0x01,%zmm19,%zmm4,%zmm10
	vpclmulqdq	$0x10,%zmm19,%zmm4,%zmm12
	vmovdqu64	448(%rsp),%zmm19
	vpclmulqdq	$0x11,%zmm19,%zmm5,%zmm13
	vpclmulqdq	$0x00,%zmm19,%zmm5,%zmm15
	vpclmulqdq	$0x01,%zmm19,%zmm5,%zmm17
	vpclmulqdq	$0x10,%zmm19,%zmm5,%zmm18

	vpternlogq	$0x96,%zmm17,%zmm10,%zmm7
	vpternlogq	$0x96,%zmm13,%zmm1,%zmm6
	vpternlogq	$0x96,%zmm15,%zmm9,%zmm8
	vpternlogq	$0x96,%zmm18,%zmm12,%zmm7
	vmovdqu64	512(%r10),%zmm11
	vmovdqu64	576(%r10),%zmm3
	vmovdqu64	640(%r10),%zmm4
	vmovdqu64	704(%r10),%zmm5
	vpshufb	%zmm16,%zmm11,%zmm11
	vpshufb	%zmm16,%zmm3,%zmm3
	vpshufb	%zmm16,%zmm4,%zmm4
	vpshufb	%zmm16,%zmm5,%zmm5
	vmovdqu64	512(%rsp),%zmm19
	vpclmulqdq	$0x11,%zmm19,%zmm11,%zmm1
	vpclmulqdq	$0x00,%zmm19,%zmm11,%zmm9
	vpclmulqdq	$0x01,%zmm19,%zmm11,%zmm10
	vpclmulqdq	$0x10,%zmm19,%zmm11,%zmm12
	vmovdqu64	576(%rsp),%zmm19
	vpclmulqdq	$0x11,%zmm19,%zmm3,%zmm13
	vpclmulqdq	$0x00,%zmm19,%zmm3,%zmm15
	vpclmulqdq	$0x01,%zmm19,%zmm3,%zmm17
	vpclmulqdq	$0x10,%zmm19,%zmm3,%zmm18
	vpternlogq	$0x96,%zmm17,%zmm10,%zmm7
	vpternlogq	$0x96,%zmm13,%zmm1,%zmm6
	vpternlogq	$0x96,%zmm15,%zmm9,%zmm8
	vpternlogq	$0x96,%zmm18,%zmm12,%zmm7
	vmovdqu64	640(%rsp),%zmm19
	vpclmulqdq	$0x11,%zmm19,%zmm4,%zmm1
	vpclmulqdq	$0x00,%zmm19,%zmm4,%zmm9
	vpclmulqdq	$0x01,%zmm19,%zmm4,%zmm10
	vpclmulqdq	$0x10,%zmm19,%zmm4,%zmm12
	vmovdqu64	704(%rsp),%zmm19
	vpclmulqdq	$0x11,%zmm19,%zmm5,%zmm13
	vpclmulqdq	$0x00,%zmm19,%zmm5,%zmm15
	vpclmulqdq	$0x01,%zmm19,%zmm5,%zmm17
	vpclmulqdq	$0x10,%zmm19,%zmm5,%zmm18

	vpternlogq	$0x96,%zmm17,%zmm10,%zmm7
	vpternlogq	$0x96,%zmm13,%zmm1,%zmm6
	vpternlogq	$0x96,%zmm15,%zmm9,%zmm8
	vpternlogq	$0x96,%zmm18,%zmm12,%zmm7

	vpsrldq	$8,%zmm7,%zmm1
	vpslldq	$8,%zmm7,%zmm9
	vpxorq	%zmm1,%zmm6,%zmm6
	vpxorq	%zmm9,%zmm8,%zmm8
	vextracti64x4	$1,%zmm6,%ymm1
	vpxorq	%ymm1,%ymm6,%ymm6
	vextracti32x4	$1,%ymm6,%xmm1
	vpxorq	%xmm1,%xmm6,%xmm6
	vextracti64x4	$1,%zmm8,%ymm9
	vpxorq	%ymm9,%ymm8,%ymm8
	vextracti32x4	$1,%ymm8,%xmm9
	vpxorq	%xmm9,%xmm8,%xmm8
	vmovdqa64	POLY2(%rip),%xmm10


	vpclmulqdq	$0x01,%xmm8,%xmm10,%xmm1
	vpslldq	$8,%xmm1,%xmm1
	vpxorq	%xmm1,%xmm8,%xmm1


	vpclmulqdq	$0x00,%xmm1,%xmm10,%xmm9
	vpsrldq	$4,%xmm9,%xmm9
	vpclmulqdq	$0x10,%xmm1,%xmm10,%xmm14
	vpslldq	$4,%xmm14,%xmm14
	vpternlogq	$0x96,%xmm6,%xmm9,%xmm14

	subq	$768,%r11
	je	.L_CALC_AAD_done_ctCFsBDDuiFxwGt

	addq	$768,%r10
	jmp	.L_get_AAD_loop48x16_ctCFsBDDuiFxwGt

.L_exit_AAD_loop48x16_ctCFsBDDuiFxwGt:

	cmpq	$512,%r11
	jl	.L_less_than_32x16_ctCFsBDDuiFxwGt

	vmovdqu64	0(%r10),%zmm11
	vmovdqu64	64(%r10),%zmm3
	vmovdqu64	128(%r10),%zmm4
	vmovdqu64	192(%r10),%zmm5
	vpshufb	%zmm16,%zmm11,%zmm11
	vpshufb	%zmm16,%zmm3,%zmm3
	vpshufb	%zmm16,%zmm4,%zmm4
	vpshufb	%zmm16,%zmm5,%zmm5
	testq	%rbx,%rbx
	jnz	.L_skip_hkeys_precomputation_dBzrBtiaAAfwGew

	vmovdqu64	192(%rsi),%zmm1
	vmovdqu64	%zmm1,704(%rsp)

	vmovdqu64	128(%rsi),%zmm9
	vmovdqu64	%zmm9,640(%rsp)


	vshufi64x2	$0x00,%zmm9,%zmm9,%zmm9

	vmovdqu64	64(%rsi),%zmm10
	vmovdqu64	%zmm10,576(%rsp)

	vmovdqu64	0(%rsi),%zmm12
	vmovdqu64	%zmm12,512(%rsp)

	vpclmulqdq	$0x11,%zmm9,%zmm10,%zmm13
	vpclmulqdq	$0x00,%zmm9,%zmm10,%zmm15
	vpclmulqdq	$0x01,%zmm9,%zmm10,%zmm17
	vpclmulqdq	$0x10,%zmm9,%zmm10,%zmm10
	vpxorq	%zmm17,%zmm10,%zmm10

	vpsrldq	$8,%zmm10,%zmm17
	vpslldq	$8,%zmm10,%zmm10
	vpxorq	%zmm17,%zmm13,%zmm13
	vpxorq	%zmm15,%zmm10,%zmm10



	vmovdqu64	POLY2(%rip),%zmm17

	vpclmulqdq	$0x01,%zmm10,%zmm17,%zmm15
	vpslldq	$8,%zmm15,%zmm15
	vpxorq	%zmm15,%zmm10,%zmm10



	vpclmulqdq	$0x00,%zmm10,%zmm17,%zmm15
	vpsrldq	$4,%zmm15,%zmm15
	vpclmulqdq	$0x10,%zmm10,%zmm17,%zmm10
	vpslldq	$4,%zmm10,%zmm10

	vpternlogq	$0x96,%zmm15,%zmm13,%zmm10

	vmovdqu64	%zmm10,448(%rsp)

	vpclmulqdq	$0x11,%zmm9,%zmm12,%zmm13
	vpclmulqdq	$0x00,%zmm9,%zmm12,%zmm15
	vpclmulqdq	$0x01,%zmm9,%zmm12,%zmm17
	vpclmulqdq	$0x10,%zmm9,%zmm12,%zmm12
	vpxorq	%zmm17,%zmm12,%zmm12

	vpsrldq	$8,%zmm12,%zmm17
	vpslldq	$8,%zmm12,%zmm12
	vpxorq	%zmm17,%zmm13,%zmm13
	vpxorq	%zmm15,%zmm12,%zmm12



	vmovdqu64	POLY2(%rip),%zmm17

	vpclmulqdq	$0x01,%zmm12,%zmm17,%zmm15
	vpslldq	$8,%zmm15,%zmm15
	vpxorq	%zmm15,%zmm12,%zmm12



	vpclmulqdq	$0x00,%zmm12,%zmm17,%zmm15
	vpsrldq	$4,%zmm15,%zmm15
	vpclmulqdq	$0x10,%zmm12,%zmm17,%zmm12
	vpslldq	$4,%zmm12,%zmm12

	vpternlogq	$0x96,%zmm15,%zmm13,%zmm12

	vmovdqu64	%zmm12,384(%rsp)

	vpclmulqdq	$0x11,%zmm9,%zmm10,%zmm13
	vpclmulqdq	$0x00,%zmm9,%zmm10,%zmm15
	vpclmulqdq	$0x01,%zmm9,%zmm10,%zmm17
	vpclmulqdq	$0x10,%zmm9,%zmm10,%zmm10
	vpxorq	%zmm17,%zmm10,%zmm10

	vpsrldq	$8,%zmm10,%zmm17
	vpslldq	$8,%zmm10,%zmm10
	vpxorq	%zmm17,%zmm13,%zmm13
	vpxorq	%zmm15,%zmm10,%zmm10



	vmovdqu64	POLY2(%rip),%zmm17

	vpclmulqdq	$0x01,%zmm10,%zmm17,%zmm15
	vpslldq	$8,%zmm15,%zmm15
	vpxorq	%zmm15,%zmm10,%zmm10



	vpclmulqdq	$0x00,%zmm10,%zmm17,%zmm15
	vpsrldq	$4,%zmm15,%zmm15
	vpclmulqdq	$0x10,%zmm10,%zmm17,%zmm10
	vpslldq	$4,%zmm10,%zmm10

	vpternlogq	$0x96,%zmm15,%zmm13,%zmm10

	vmovdqu64	%zmm10,320(%rsp)

	vpclmulqdq	$0x11,%zmm9,%zmm12,%zmm13
	vpclmulqdq	$0x00,%zmm9,%zmm12,%zmm15
	vpclmulqdq	$0x01,%zmm9,%zmm12,%zmm17
	vpclmulqdq	$0x10,%zmm9,%zmm12,%zmm12
	vpxorq	%zmm17,%zmm12,%zmm12

	vpsrldq	$8,%zmm12,%zmm17
	vpslldq	$8,%zmm12,%zmm12
	vpxorq	%zmm17,%zmm13,%zmm13
	vpxorq	%zmm15,%zmm12,%zmm12



	vmovdqu64	POLY2(%rip),%zmm17

	vpclmulqdq	$0x01,%zmm12,%zmm17,%zmm15
	vpslldq	$8,%zmm15,%zmm15
	vpxorq	%zmm15,%zmm12,%zmm12



	vpclmulqdq	$0x00,%zmm12,%zmm17,%zmm15
	vpsrldq	$4,%zmm15,%zmm15
	vpclmulqdq	$0x10,%zmm12,%zmm17,%zmm12
	vpslldq	$4,%zmm12,%zmm12

	vpternlogq	$0x96,%zmm15,%zmm13,%zmm12

	vmovdqu64	%zmm12,256(%rsp)
.L_skip_hkeys_precomputation_dBzrBtiaAAfwGew:
	movq	$1,%rbx
	vpxorq	%zmm14,%zmm11,%zmm11
	vmovdqu64	256(%rsp),%zmm19
	vpclmulqdq	$0x11,%zmm19,%zmm11,%zmm1
	vpclmulqdq	$0x00,%zmm19,%zmm11,%zmm9
	vpclmulqdq	$0x01,%zmm19,%zmm11,%zmm10
	vpclmulqdq	$0x10,%zmm19,%zmm11,%zmm12
	vmovdqu64	320(%rsp),%zmm19
	vpclmulqdq	$0x11,%zmm19,%zmm3,%zmm13
	vpclmulqdq	$0x00,%zmm19,%zmm3,%zmm15
	vpclmulqdq	$0x01,%zmm19,%zmm3,%zmm17
	vpclmulqdq	$0x10,%zmm19,%zmm3,%zmm18
	vpxorq	%zmm17,%zmm10,%zmm7
	vpxorq	%zmm13,%zmm1,%zmm6
	vpxorq	%zmm15,%zmm9,%zmm8
	vpternlogq	$0x96,%zmm18,%zmm12,%zmm7
	vmovdqu64	384(%rsp),%zmm19
	vpclmulqdq	$0x11,%zmm19,%zmm4,%zmm1
	vpclmulqdq	$0x00,%zmm19,%zmm4,%zmm9
	vpclmulqdq	$0x01,%zmm19,%zmm4,%zmm10
	vpclmulqdq	$0x10,%zmm19,%zmm4,%zmm12
	vmovdqu64	448(%rsp),%zmm19
	vpclmulqdq	$0x11,%zmm19,%zmm5,%zmm13
	vpclmulqdq	$0x00,%zmm19,%zmm5,%zmm15
	vpclmulqdq	$0x01,%zmm19,%zmm5,%zmm17
	vpclmulqdq	$0x10,%zmm19,%zmm5,%zmm18

	vpternlogq	$0x96,%zmm17,%zmm10,%zmm7
	vpternlogq	$0x96,%zmm13,%zmm1,%zmm6
	vpternlogq	$0x96,%zmm15,%zmm9,%zmm8
	vpternlogq	$0x96,%zmm18,%zmm12,%zmm7
	vmovdqu64	256(%r10),%zmm11
	vmovdqu64	320(%r10),%zmm3
	vmovdqu64	384(%r10),%zmm4
	vmovdqu64	448(%r10),%zmm5
	vpshufb	%zmm16,%zmm11,%zmm11
	vpshufb	%zmm16,%zmm3,%zmm3
	vpshufb	%zmm16,%zmm4,%zmm4
	vpshufb	%zmm16,%zmm5,%zmm5
	vmovdqu64	512(%rsp),%zmm19
	vpclmulqdq	$0x11,%zmm19,%zmm11,%zmm1
	vpclmulqdq	$0x00,%zmm19,%zmm11,%zmm9
	vpclmulqdq	$0x01,%zmm19,%zmm11,%zmm10
	vpclmulqdq	$0x10,%zmm19,%zmm11,%zmm12
	vmovdqu64	576(%rsp),%zmm19
	vpclmulqdq	$0x11,%zmm19,%zmm3,%zmm13
	vpclmulqdq	$0x00,%zmm19,%zmm3,%zmm15
	vpclmulqdq	$0x01,%zmm19,%zmm3,%zmm17
	vpclmulqdq	$0x10,%zmm19,%zmm3,%zmm18
	vpternlogq	$0x96,%zmm17,%zmm10,%zmm7
	vpternlogq	$0x96,%zmm13,%zmm1,%zmm6
	vpternlogq	$0x96,%zmm15,%zmm9,%zmm8
	vpternlogq	$0x96,%zmm18,%zmm12,%zmm7
	vmovdqu64	640(%rsp),%zmm19
	vpclmulqdq	$0x11,%zmm19,%zmm4,%zmm1
	vpclmulqdq	$0x00,%zmm19,%zmm4,%zmm9
	vpclmulqdq	$0x01,%zmm19,%zmm4,%zmm10
	vpclmulqdq	$0x10,%zmm19,%zmm4,%zmm12
	vmovdqu64	704(%rsp),%zmm19
	vpclmulqdq	$0x11,%zmm19,%zmm5,%zmm13
	vpclmulqdq	$0x00,%zmm19,%zmm5,%zmm15
	vpclmulqdq	$0x01,%zmm19,%zmm5,%zmm17
	vpclmulqdq	$0x10,%zmm19,%zmm5,%zmm18

	vpternlogq	$0x96,%zmm17,%zmm10,%zmm7
	vpternlogq	$0x96,%zmm13,%zmm1,%zmm6
	vpternlogq	$0x96,%zmm15,%zmm9,%zmm8
	vpternlogq	$0x96,%zmm18,%zmm12,%zmm7

	vpsrldq	$8,%zmm7,%zmm1
	vpslldq	$8,%zmm7,%zmm9
	vpxorq	%zmm1,%zmm6,%zmm6
	vpxorq	%zmm9,%zmm8,%zmm8
	vextracti64x4	$1,%zmm6,%ymm1
	vpxorq	%ymm1,%ymm6,%ymm6
	vextracti32x4	$1,%ymm6,%xmm1
	vpxorq	%xmm1,%xmm6,%xmm6
	vextracti64x4	$1,%zmm8,%ymm9
	vpxorq	%ymm9,%ymm8,%ymm8
	vextracti32x4	$1,%ymm8,%xmm9
	vpxorq	%xmm9,%xmm8,%xmm8
	vmovdqa64	POLY2(%rip),%xmm10


	vpclmulqdq	$0x01,%xmm8,%xmm10,%xmm1
	vpslldq	$8,%xmm1,%xmm1
	vpxorq	%xmm1,%xmm8,%xmm1


	vpclmulqdq	$0x00,%xmm1,%xmm10,%xmm9
	vpsrldq	$4,%xmm9,%xmm9
	vpclmulqdq	$0x10,%xmm1,%xmm10,%xmm14
	vpslldq	$4,%xmm14,%xmm14
	vpternlogq	$0x96,%xmm6,%xmm9,%xmm14

	subq	$512,%r11
	je	.L_CALC_AAD_done_ctCFsBDDuiFxwGt

	addq	$512,%r10
	jmp	.L_less_than_16x16_ctCFsBDDuiFxwGt

.L_less_than_32x16_ctCFsBDDuiFxwGt:
	cmpq	$256,%r11
	jl	.L_less_than_16x16_ctCFsBDDuiFxwGt

	vmovdqu64	0(%r10),%zmm11
	vmovdqu64	64(%r10),%zmm3
	vmovdqu64	128(%r10),%zmm4
	vmovdqu64	192(%r10),%zmm5
	vpshufb	%zmm16,%zmm11,%zmm11
	vpshufb	%zmm16,%zmm3,%zmm3
	vpshufb	%zmm16,%zmm4,%zmm4
	vpshufb	%zmm16,%zmm5,%zmm5
	vpxorq	%zmm14,%zmm11,%zmm11
	vmovdqu64	0(%rsi),%zmm19
	vpclmulqdq	$0x11,%zmm19,%zmm11,%zmm1
	vpclmulqdq	$0x00,%zmm19,%zmm11,%zmm9
	vpclmulqdq	$0x01,%zmm19,%zmm11,%zmm10
	vpclmulqdq	$0x10,%zmm19,%zmm11,%zmm12
	vmovdqu64	64(%rsi),%zmm19
	vpclmulqdq	$0x11,%zmm19,%zmm3,%zmm13
	vpclmulqdq	$0x00,%zmm19,%zmm3,%zmm15
	vpclmulqdq	$0x01,%zmm19,%zmm3,%zmm17
	vpclmulqdq	$0x10,%zmm19,%zmm3,%zmm18
	vpxorq	%zmm17,%zmm10,%zmm7
	vpxorq	%zmm13,%zmm1,%zmm6
	vpxorq	%zmm15,%zmm9,%zmm8
	vpternlogq	$0x96,%zmm18,%zmm12,%zmm7
	vmovdqu64	128(%rsi),%zmm19
	vpclmulqdq	$0x11,%zmm19,%zmm4,%zmm1
	vpclmulqdq	$0x00,%zmm19,%zmm4,%zmm9
	vpclmulqdq	$0x01,%zmm19,%zmm4,%zmm10
	vpclmulqdq	$0x10,%zmm19,%zmm4,%zmm12
	vmovdqu64	192(%rsi),%zmm19
	vpclmulqdq	$0x11,%zmm19,%zmm5,%zmm13
	vpclmulqdq	$0x00,%zmm19,%zmm5,%zmm15
	vpclmulqdq	$0x01,%zmm19,%zmm5,%zmm17
	vpclmulqdq	$0x10,%zmm19,%zmm5,%zmm18

	vpternlogq	$0x96,%zmm17,%zmm10,%zmm7
	vpternlogq	$0x96,%zmm13,%zmm1,%zmm6
	vpternlogq	$0x96,%zmm15,%zmm9,%zmm8
	vpternlogq	$0x96,%zmm18,%zmm12,%zmm7

	vpsrldq	$8,%zmm7,%zmm1
	vpslldq	$8,%zmm7,%zmm9
	vpxorq	%zmm1,%zmm6,%zmm6
	vpxorq	%zmm9,%zmm8,%zmm8
	vextracti64x4	$1,%zmm6,%ymm1
	vpxorq	%ymm1,%ymm6,%ymm6
	vextracti32x4	$1,%ymm6,%xmm1
	vpxorq	%xmm1,%xmm6,%xmm6
	vextracti64x4	$1,%zmm8,%ymm9
	vpxorq	%ymm9,%ymm8,%ymm8
	vextracti32x4	$1,%ymm8,%xmm9
	vpxorq	%xmm9,%xmm8,%xmm8
	vmovdqa64	POLY2(%rip),%xmm10


	vpclmulqdq	$0x01,%xmm8,%xmm10,%xmm1
	vpslldq	$8,%xmm1,%xmm1
	vpxorq	%xmm1,%xmm8,%xmm1


	vpclmulqdq	$0x00,%xmm1,%xmm10,%xmm9
	vpsrldq	$4,%xmm9,%xmm9
	vpclmulqdq	$0x10,%xmm1,%xmm10,%xmm14
	vpslldq	$4,%xmm14,%xmm14
	vpternlogq	$0x96,%xmm6,%xmm9,%xmm14

	subq	$256,%r11
	je	.L_CALC_AAD_done_ctCFsBDDuiFxwGt

	addq	$256,%r10

.L_less_than_16x16_ctCFsBDDuiFxwGt:

	leaq	byte64_len_to_mask_table(%rip),%r12
	leaq	(%r12,%r11,8),%r12


	addl	$15,%r11d
	shrl	$4,%r11d
	cmpl	$2,%r11d
	jb	.L_AAD_blocks_1_ctCFsBDDuiFxwGt
	je	.L_AAD_blocks_2_ctCFsBDDuiFxwGt
	cmpl	$4,%r11d
	jb	.L_AAD_blocks_3_ctCFsBDDuiFxwGt
	je	.L_AAD_blocks_4_ctCFsBDDuiFxwGt
	cmpl	$6,%r11d
	jb	.L_AAD_blocks_5_ctCFsBDDuiFxwGt
	je	.L_AAD_blocks_6_ctCFsBDDuiFxwGt
	cmpl	$8,%r11d
	jb	.L_AAD_blocks_7_ctCFsBDDuiFxwGt
	je	.L_AAD_blocks_8_ctCFsBDDuiFxwGt
	cmpl	$10,%r11d
	jb	.L_AAD_blocks_9_ctCFsBDDuiFxwGt
	je	.L_AAD_blocks_10_ctCFsBDDuiFxwGt
	cmpl	$12,%r11d
	jb	.L_AAD_blocks_11_ctCFsBDDuiFxwGt
	je	.L_AAD_blocks_12_ctCFsBDDuiFxwGt
	cmpl	$14,%r11d
	jb	.L_AAD_blocks_13_ctCFsBDDuiFxwGt
	je	.L_AAD_blocks_14_ctCFsBDDuiFxwGt
	cmpl	$15,%r11d
	je	.L_AAD_blocks_15_ctCFsBDDuiFxwGt
.L_AAD_blocks_16_ctCFsBDDuiFxwGt:
	subq	$1536,%r12
	kmovq	(%r12),%k1
	vmovdqu8	0(%r10),%zmm11
	vmovdqu8	64(%r10),%zmm3
	vmovdqu8	128(%r10),%zmm4
	vmovdqu8	192(%r10),%zmm5{%k1}{z}
	vpshufb	%zmm16,%zmm11,%zmm11
	vpshufb	%zmm16,%zmm3,%zmm3
	vpshufb	%zmm16,%zmm4,%zmm4
	vpshufb	%zmm16,%zmm5,%zmm5
	vpxorq	%zmm14,%zmm11,%zmm11
	vmovdqu64	0(%rsi),%zmm15
	vpclmulqdq	$0x11,%zmm15,%zmm11,%zmm1
	vpclmulqdq	$0x00,%zmm15,%zmm11,%zmm6
	vpclmulqdq	$0x01,%zmm15,%zmm11,%zmm7
	vpclmulqdq	$0x10,%zmm15,%zmm11,%zmm8
	vmovdqu64	64(%rsi),%zmm15
	vpclmulqdq	$0x11,%zmm15,%zmm3,%zmm9
	vpclmulqdq	$0x00,%zmm15,%zmm3,%zmm10
	vpclmulqdq	$0x01,%zmm15,%zmm3,%zmm12
	vpclmulqdq	$0x10,%zmm15,%zmm3,%zmm13
	vmovdqu64	128(%rsi),%zmm15
	vpclmulqdq	$0x11,%zmm15,%zmm4,%zmm11
	vpclmulqdq	$0x00,%zmm15,%zmm4,%zmm3
	vpternlogq	$0x96,%zmm9,%zmm11,%zmm1
	vpternlogq	$0x96,%zmm10,%zmm3,%zmm6
	vpclmulqdq	$0x01,%zmm15,%zmm4,%zmm11
	vpclmulqdq	$0x10,%zmm15,%zmm4,%zmm3
	vpternlogq	$0x96,%zmm12,%zmm11,%zmm7
	vpternlogq	$0x96,%zmm13,%zmm3,%zmm8
	vmovdqu64	192(%rsi),%zmm15
	vpclmulqdq	$0x11,%zmm15,%zmm5,%zmm9
	vpclmulqdq	$0x00,%zmm15,%zmm5,%zmm10
	vpclmulqdq	$0x01,%zmm15,%zmm5,%zmm12
	vpclmulqdq	$0x10,%zmm15,%zmm5,%zmm13
	vpxorq	%zmm9,%zmm1,%zmm9
	vpxorq	%zmm10,%zmm6,%zmm10
	vpxorq	%zmm12,%zmm7,%zmm12
	vpxorq	%zmm13,%zmm8,%zmm13

	vpxorq	%zmm13,%zmm12,%zmm12
	vpsrldq	$8,%zmm12,%zmm7
	vpslldq	$8,%zmm12,%zmm8
	vpxorq	%zmm7,%zmm9,%zmm1
	vpxorq	%zmm8,%zmm10,%zmm6
	vextracti64x4	$1,%zmm1,%ymm12
	vpxorq	%ymm12,%ymm1,%ymm1
	vextracti32x4	$1,%ymm1,%xmm12
	vpxorq	%xmm12,%xmm1,%xmm1
	vextracti64x4	$1,%zmm6,%ymm13
	vpxorq	%ymm13,%ymm6,%ymm6
	vextracti32x4	$1,%ymm6,%xmm13
	vpxorq	%xmm13,%xmm6,%xmm6
	vmovdqa64	POLY2(%rip),%xmm15


	vpclmulqdq	$0x01,%xmm6,%xmm15,%xmm7
	vpslldq	$8,%xmm7,%xmm7
	vpxorq	%xmm7,%xmm6,%xmm7


	vpclmulqdq	$0x00,%xmm7,%xmm15,%xmm8
	vpsrldq	$4,%xmm8,%xmm8
	vpclmulqdq	$0x10,%xmm7,%xmm15,%xmm14
	vpslldq	$4,%xmm14,%xmm14
	vpternlogq	$0x96,%xmm1,%xmm8,%xmm14

	jmp	.L_CALC_AAD_done_ctCFsBDDuiFxwGt
.L_AAD_blocks_15_ctCFsBDDuiFxwGt:
	subq	$1536,%r12
	kmovq	(%r12),%k1
	vmovdqu8	0(%r10),%zmm11
	vmovdqu8	64(%r10),%zmm3
	vmovdqu8	128(%r10),%zmm4
	vmovdqu8	192(%r10),%zmm5{%k1}{z}
	vpshufb	%zmm16,%zmm11,%zmm11
	vpshufb	%zmm16,%zmm3,%zmm3
	vpshufb	%zmm16,%zmm4,%zmm4
	vpshufb	%zmm16,%zmm5,%zmm5
	vpxorq	%zmm14,%zmm11,%zmm11
	vmovdqu64	16(%rsi),%zmm15
	vpclmulqdq	$0x11,%zmm15,%zmm11,%zmm1
	vpclmulqdq	$0x00,%zmm15,%zmm11,%zmm6
	vpclmulqdq	$0x01,%zmm15,%zmm11,%zmm7
	vpclmulqdq	$0x10,%zmm15,%zmm11,%zmm8
	vmovdqu64	80(%rsi),%zmm15
	vpclmulqdq	$0x11,%zmm15,%zmm3,%zmm9
	vpclmulqdq	$0x00,%zmm15,%zmm3,%zmm10
	vpclmulqdq	$0x01,%zmm15,%zmm3,%zmm12
	vpclmulqdq	$0x10,%zmm15,%zmm3,%zmm13
	vmovdqu64	144(%rsi),%zmm15
	vpclmulqdq	$0x11,%zmm15,%zmm4,%zmm11
	vpclmulqdq	$0x00,%zmm15,%zmm4,%zmm3
	vpternlogq	$0x96,%zmm1,%zmm11,%zmm9
	vpternlogq	$0x96,%zmm6,%zmm3,%zmm10
	vpclmulqdq	$0x01,%zmm15,%zmm4,%zmm11
	vpclmulqdq	$0x10,%zmm15,%zmm4,%zmm3
	vpternlogq	$0x96,%zmm7,%zmm11,%zmm12
	vpternlogq	$0x96,%zmm8,%zmm3,%zmm13
	vmovdqu64	208(%rsi),%ymm15
	vinserti64x2	$2,240(%rsi),%zmm15,%zmm15
	vpclmulqdq	$0x01,%zmm15,%zmm5,%zmm7
	vpclmulqdq	$0x10,%zmm15,%zmm5,%zmm8
	vpclmulqdq	$0x11,%zmm15,%zmm5,%zmm1
	vpclmulqdq	$0x00,%zmm15,%zmm5,%zmm6

	vpxorq	%zmm12,%zmm7,%zmm7
	vpxorq	%zmm13,%zmm8,%zmm8
	vpxorq	%zmm9,%zmm1,%zmm1
	vpxorq	%zmm10,%zmm6,%zmm6

	vpxorq	%zmm8,%zmm7,%zmm7
	vpsrldq	$8,%zmm7,%zmm12
	vpslldq	$8,%zmm7,%zmm13
	vpxorq	%zmm12,%zmm1,%zmm1
	vpxorq	%zmm13,%zmm6,%zmm6
	vextracti64x4	$1,%zmm1,%ymm12
	vpxorq	%ymm12,%ymm1,%ymm1
	vextracti32x4	$1,%ymm1,%xmm12
	vpxorq	%xmm12,%xmm1,%xmm1
	vextracti64x4	$1,%zmm6,%ymm13
	vpxorq	%ymm13,%ymm6,%ymm6
	vextracti32x4	$1,%ymm6,%xmm13
	vpxorq	%xmm13,%xmm6,%xmm6
	vmovdqa64	POLY2(%rip),%xmm15


	vpclmulqdq	$0x01,%xmm6,%xmm15,%xmm7
	vpslldq	$8,%xmm7,%xmm7
	vpxorq	%xmm7,%xmm6,%xmm7


	vpclmulqdq	$0x00,%xmm7,%xmm15,%xmm8
	vpsrldq	$4,%xmm8,%xmm8
	vpclmulqdq	$0x10,%xmm7,%xmm15,%xmm14
	vpslldq	$4,%xmm14,%xmm14
	vpternlogq	$0x96,%xmm1,%xmm8,%xmm14

	jmp	.L_CALC_AAD_done_ctCFsBDDuiFxwGt
.L_AAD_blocks_14_ctCFsBDDuiFxwGt:
	subq	$1536,%r12
	kmovq	(%r12),%k1
	vmovdqu8	0(%r10),%zmm11
	vmovdqu8	64(%r10),%zmm3
	vmovdqu8	128(%r10),%zmm4
	vmovdqu8	192(%r10),%ymm5{%k1}{z}
	vpshufb	%zmm16,%zmm11,%zmm11
	vpshufb	%zmm16,%zmm3,%zmm3
	vpshufb	%zmm16,%zmm4,%zmm4
	vpshufb	%ymm16,%ymm5,%ymm5
	vpxorq	%zmm14,%zmm11,%zmm11
	vmovdqu64	32(%rsi),%zmm15
	vpclmulqdq	$0x11,%zmm15,%zmm11,%zmm1
	vpclmulqdq	$0x00,%zmm15,%zmm11,%zmm6
	vpclmulqdq	$0x01,%zmm15,%zmm11,%zmm7
	vpclmulqdq	$0x10,%zmm15,%zmm11,%zmm8
	vmovdqu64	96(%rsi),%zmm15
	vpclmulqdq	$0x11,%zmm15,%zmm3,%zmm9
	vpclmulqdq	$0x00,%zmm15,%zmm3,%zmm10
	vpclmulqdq	$0x01,%zmm15,%zmm3,%zmm12
	vpclmulqdq	$0x10,%zmm15,%zmm3,%zmm13
	vmovdqu64	160(%rsi),%zmm15
	vpclmulqdq	$0x11,%zmm15,%zmm4,%zmm11
	vpclmulqdq	$0x00,%zmm15,%zmm4,%zmm3
	vpternlogq	$0x96,%zmm1,%zmm11,%zmm9
	vpternlogq	$0x96,%zmm6,%zmm3,%zmm10
	vpclmulqdq	$0x01,%zmm15,%zmm4,%zmm11
	vpclmulqdq	$0x10,%zmm15,%zmm4,%zmm3
	vpternlogq	$0x96,%zmm7,%zmm11,%zmm12
	vpternlogq	$0x96,%zmm8,%zmm3,%zmm13
	vmovdqu64	224(%rsi),%ymm15
	vpclmulqdq	$0x01,%ymm15,%ymm5,%ymm7
	vpclmulqdq	$0x10,%ymm15,%ymm5,%ymm8
	vpclmulqdq	$0x11,%ymm15,%ymm5,%ymm1
	vpclmulqdq	$0x00,%ymm15,%ymm5,%ymm6

	vpxorq	%zmm12,%zmm7,%zmm7
	vpxorq	%zmm13,%zmm8,%zmm8
	vpxorq	%zmm9,%zmm1,%zmm1
	vpxorq	%zmm10,%zmm6,%zmm6

	vpxorq	%zmm8,%zmm7,%zmm7
	vpsrldq	$8,%zmm7,%zmm12
	vpslldq	$8,%zmm7,%zmm13
	vpxorq	%zmm12,%zmm1,%zmm1
	vpxorq	%zmm13,%zmm6,%zmm6
	vextracti64x4	$1,%zmm1,%ymm12
	vpxorq	%ymm12,%ymm1,%ymm1
	vextracti32x4	$1,%ymm1,%xmm12
	vpxorq	%xmm12,%xmm1,%xmm1
	vextracti64x4	$1,%zmm6,%ymm13
	vpxorq	%ymm13,%ymm6,%ymm6
	vextracti32x4	$1,%ymm6,%xmm13
	vpxorq	%xmm13,%xmm6,%xmm6
	vmovdqa64	POLY2(%rip),%xmm15


	vpclmulqdq	$0x01,%xmm6,%xmm15,%xmm7
	vpslldq	$8,%xmm7,%xmm7
	vpxorq	%xmm7,%xmm6,%xmm7


	vpclmulqdq	$0x00,%xmm7,%xmm15,%xmm8
	vpsrldq	$4,%xmm8,%xmm8
	vpclmulqdq	$0x10,%xmm7,%xmm15,%xmm14
	vpslldq	$4,%xmm14,%xmm14
	vpternlogq	$0x96,%xmm1,%xmm8,%xmm14

	jmp	.L_CALC_AAD_done_ctCFsBDDuiFxwGt
.L_AAD_blocks_13_ctCFsBDDuiFxwGt:
	subq	$1536,%r12
	kmovq	(%r12),%k1
	vmovdqu8	0(%r10),%zmm11
	vmovdqu8	64(%r10),%zmm3
	vmovdqu8	128(%r10),%zmm4
	vmovdqu8	192(%r10),%xmm5{%k1}{z}
	vpshufb	%zmm16,%zmm11,%zmm11
	vpshufb	%zmm16,%zmm3,%zmm3
	vpshufb	%zmm16,%zmm4,%zmm4
	vpshufb	%xmm16,%xmm5,%xmm5
	vpxorq	%zmm14,%zmm11,%zmm11
	vmovdqu64	48(%rsi),%zmm15
	vpclmulqdq	$0x11,%zmm15,%zmm11,%zmm1
	vpclmulqdq	$0x00,%zmm15,%zmm11,%zmm6
	vpclmulqdq	$0x01,%zmm15,%zmm11,%zmm7
	vpclmulqdq	$0x10,%zmm15,%zmm11,%zmm8
	vmovdqu64	112(%rsi),%zmm15
	vpclmulqdq	$0x11,%zmm15,%zmm3,%zmm9
	vpclmulqdq	$0x00,%zmm15,%zmm3,%zmm10
	vpclmulqdq	$0x01,%zmm15,%zmm3,%zmm12
	vpclmulqdq	$0x10,%zmm15,%zmm3,%zmm13
	vmovdqu64	176(%rsi),%zmm15
	vpclmulqdq	$0x11,%zmm15,%zmm4,%zmm11
	vpclmulqdq	$0x00,%zmm15,%zmm4,%zmm3
	vpternlogq	$0x96,%zmm1,%zmm11,%zmm9
	vpternlogq	$0x96,%zmm6,%zmm3,%zmm10
	vpclmulqdq	$0x01,%zmm15,%zmm4,%zmm11
	vpclmulqdq	$0x10,%zmm15,%zmm4,%zmm3
	vpternlogq	$0x96,%zmm7,%zmm11,%zmm12
	vpternlogq	$0x96,%zmm8,%zmm3,%zmm13
	vmovdqu64	240(%rsi),%xmm15
	vpclmulqdq	$0x01,%xmm15,%xmm5,%xmm7
	vpclmulqdq	$0x10,%xmm15,%xmm5,%xmm8
	vpclmulqdq	$0x11,%xmm15,%xmm5,%xmm1
	vpclmulqdq	$0x00,%xmm15,%xmm5,%xmm6

	vpxorq	%zmm12,%zmm7,%zmm7
	vpxorq	%zmm13,%zmm8,%zmm8
	vpxorq	%zmm9,%zmm1,%zmm1
	vpxorq	%zmm10,%zmm6,%zmm6

	vpxorq	%zmm8,%zmm7,%zmm7
	vpsrldq	$8,%zmm7,%zmm12
	vpslldq	$8,%zmm7,%zmm13
	vpxorq	%zmm12,%zmm1,%zmm1
	vpxorq	%zmm13,%zmm6,%zmm6
	vextracti64x4	$1,%zmm1,%ymm12
	vpxorq	%ymm12,%ymm1,%ymm1
	vextracti32x4	$1,%ymm1,%xmm12
	vpxorq	%xmm12,%xmm1,%xmm1
	vextracti64x4	$1,%zmm6,%ymm13
	vpxorq	%ymm13,%ymm6,%ymm6
	vextracti32x4	$1,%ymm6,%xmm13
	vpxorq	%xmm13,%xmm6,%xmm6
	vmovdqa64	POLY2(%rip),%xmm15


	vpclmulqdq	$0x01,%xmm6,%xmm15,%xmm7
	vpslldq	$8,%xmm7,%xmm7
	vpxorq	%xmm7,%xmm6,%xmm7


	vpclmulqdq	$0x00,%xmm7,%xmm15,%xmm8
	vpsrldq	$4,%xmm8,%xmm8
	vpclmulqdq	$0x10,%xmm7,%xmm15,%xmm14
	vpslldq	$4,%xmm14,%xmm14
	vpternlogq	$0x96,%xmm1,%xmm8,%xmm14

	jmp	.L_CALC_AAD_done_ctCFsBDDuiFxwGt
.L_AAD_blocks_12_ctCFsBDDuiFxwGt:
	subq	$1024,%r12
	kmovq	(%r12),%k1
	vmovdqu8	0(%r10),%zmm11
	vmovdqu8	64(%r10),%zmm3
	vmovdqu8	128(%r10),%zmm4{%k1}{z}
	vpshufb	%zmm16,%zmm11,%zmm11
	vpshufb	%zmm16,%zmm3,%zmm3
	vpshufb	%zmm16,%zmm4,%zmm4
	vpxorq	%zmm14,%zmm11,%zmm11
	vmovdqu64	64(%rsi),%zmm15
	vpclmulqdq	$0x11,%zmm15,%zmm11,%zmm1
	vpclmulqdq	$0x00,%zmm15,%zmm11,%zmm6
	vpclmulqdq	$0x01,%zmm15,%zmm11,%zmm7
	vpclmulqdq	$0x10,%zmm15,%zmm11,%zmm8
	vmovdqu64	128(%rsi),%zmm15
	vpclmulqdq	$0x11,%zmm15,%zmm3,%zmm9
	vpclmulqdq	$0x00,%zmm15,%zmm3,%zmm10
	vpclmulqdq	$0x01,%zmm15,%zmm3,%zmm12
	vpclmulqdq	$0x10,%zmm15,%zmm3,%zmm13
	vmovdqu64	192(%rsi),%zmm15
	vpclmulqdq	$0x11,%zmm15,%zmm4,%zmm11
	vpclmulqdq	$0x00,%zmm15,%zmm4,%zmm3
	vpternlogq	$0x96,%zmm1,%zmm11,%zmm9
	vpternlogq	$0x96,%zmm6,%zmm3,%zmm10
	vpclmulqdq	$0x01,%zmm15,%zmm4,%zmm11
	vpclmulqdq	$0x10,%zmm15,%zmm4,%zmm3
	vpternlogq	$0x96,%zmm7,%zmm11,%zmm12
	vpternlogq	$0x96,%zmm8,%zmm3,%zmm13

	vpxorq	%zmm13,%zmm12,%zmm12
	vpsrldq	$8,%zmm12,%zmm7
	vpslldq	$8,%zmm12,%zmm8
	vpxorq	%zmm7,%zmm9,%zmm1
	vpxorq	%zmm8,%zmm10,%zmm6
	vextracti64x4	$1,%zmm1,%ymm12
	vpxorq	%ymm12,%ymm1,%ymm1
	vextracti32x4	$1,%ymm1,%xmm12
	vpxorq	%xmm12,%xmm1,%xmm1
	vextracti64x4	$1,%zmm6,%ymm13
	vpxorq	%ymm13,%ymm6,%ymm6
	vextracti32x4	$1,%ymm6,%xmm13
	vpxorq	%xmm13,%xmm6,%xmm6
	vmovdqa64	POLY2(%rip),%xmm15


	vpclmulqdq	$0x01,%xmm6,%xmm15,%xmm7
	vpslldq	$8,%xmm7,%xmm7
	vpxorq	%xmm7,%xmm6,%xmm7


	vpclmulqdq	$0x00,%xmm7,%xmm15,%xmm8
	vpsrldq	$4,%xmm8,%xmm8
	vpclmulqdq	$0x10,%xmm7,%xmm15,%xmm14
	vpslldq	$4,%xmm14,%xmm14
	vpternlogq	$0x96,%xmm1,%xmm8,%xmm14

	jmp	.L_CALC_AAD_done_ctCFsBDDuiFxwGt
.L_AAD_blocks_11_ctCFsBDDuiFxwGt:
	subq	$1024,%r12
	kmovq	(%r12),%k1
	vmovdqu8	0(%r10),%zmm11
	vmovdqu8	64(%r10),%zmm3
	vmovdqu8	128(%r10),%zmm4{%k1}{z}
	vpshufb	%zmm16,%zmm11,%zmm11
	vpshufb	%zmm16,%zmm3,%zmm3
	vpshufb	%zmm16,%zmm4,%zmm4
	vpxorq	%zmm14,%zmm11,%zmm11
	vmovdqu64	80(%rsi),%zmm15
	vpclmulqdq	$0x11,%zmm15,%zmm11,%zmm1
	vpclmulqdq	$0x00,%zmm15,%zmm11,%zmm6
	vpclmulqdq	$0x01,%zmm15,%zmm11,%zmm7
	vpclmulqdq	$0x10,%zmm15,%zmm11,%zmm8
	vmovdqu64	144(%rsi),%zmm15
	vpclmulqdq	$0x11,%zmm15,%zmm3,%zmm9
	vpclmulqdq	$0x00,%zmm15,%zmm3,%zmm10
	vpclmulqdq	$0x01,%zmm15,%zmm3,%zmm12
	vpclmulqdq	$0x10,%zmm15,%zmm3,%zmm13
	vpxorq	%zmm9,%zmm1,%zmm9
	vpxorq	%zmm10,%zmm6,%zmm10
	vpxorq	%zmm12,%zmm7,%zmm12
	vpxorq	%zmm13,%zmm8,%zmm13
	vmovdqu64	208(%rsi),%ymm15
	vinserti64x2	$2,240(%rsi),%zmm15,%zmm15
	vpclmulqdq	$0x01,%zmm15,%zmm4,%zmm7
	vpclmulqdq	$0x10,%zmm15,%zmm4,%zmm8
	vpclmulqdq	$0x11,%zmm15,%zmm4,%zmm1
	vpclmulqdq	$0x00,%zmm15,%zmm4,%zmm6

	vpxorq	%zmm12,%zmm7,%zmm7
	vpxorq	%zmm13,%zmm8,%zmm8
	vpxorq	%zmm9,%zmm1,%zmm1
	vpxorq	%zmm10,%zmm6,%zmm6

	vpxorq	%zmm8,%zmm7,%zmm7
	vpsrldq	$8,%zmm7,%zmm12
	vpslldq	$8,%zmm7,%zmm13
	vpxorq	%zmm12,%zmm1,%zmm1
	vpxorq	%zmm13,%zmm6,%zmm6
	vextracti64x4	$1,%zmm1,%ymm12
	vpxorq	%ymm12,%ymm1,%ymm1
	vextracti32x4	$1,%ymm1,%xmm12
	vpxorq	%xmm12,%xmm1,%xmm1
	vextracti64x4	$1,%zmm6,%ymm13
	vpxorq	%ymm13,%ymm6,%ymm6
	vextracti32x4	$1,%ymm6,%xmm13
	vpxorq	%xmm13,%xmm6,%xmm6
	vmovdqa64	POLY2(%rip),%xmm15


	vpclmulqdq	$0x01,%xmm6,%xmm15,%xmm7
	vpslldq	$8,%xmm7,%xmm7
	vpxorq	%xmm7,%xmm6,%xmm7


	vpclmulqdq	$0x00,%xmm7,%xmm15,%xmm8
	vpsrldq	$4,%xmm8,%xmm8
	vpclmulqdq	$0x10,%xmm7,%xmm15,%xmm14
	vpslldq	$4,%xmm14,%xmm14
	vpternlogq	$0x96,%xmm1,%xmm8,%xmm14

	jmp	.L_CALC_AAD_done_ctCFsBDDuiFxwGt
.L_AAD_blocks_10_ctCFsBDDuiFxwGt:
	subq	$1024,%r12
	kmovq	(%r12),%k1
	vmovdqu8	0(%r10),%zmm11
	vmovdqu8	64(%r10),%zmm3
	vmovdqu8	128(%r10),%ymm4{%k1}{z}
	vpshufb	%zmm16,%zmm11,%zmm11
	vpshufb	%zmm16,%zmm3,%zmm3
	vpshufb	%ymm16,%ymm4,%ymm4
	vpxorq	%zmm14,%zmm11,%zmm11
	vmovdqu64	96(%rsi),%zmm15
	vpclmulqdq	$0x11,%zmm15,%zmm11,%zmm1
	vpclmulqdq	$0x00,%zmm15,%zmm11,%zmm6
	vpclmulqdq	$0x01,%zmm15,%zmm11,%zmm7
	vpclmulqdq	$0x10,%zmm15,%zmm11,%zmm8
	vmovdqu64	160(%rsi),%zmm15
	vpclmulqdq	$0x11,%zmm15,%zmm3,%zmm9
	vpclmulqdq	$0x00,%zmm15,%zmm3,%zmm10
	vpclmulqdq	$0x01,%zmm15,%zmm3,%zmm12
	vpclmulqdq	$0x10,%zmm15,%zmm3,%zmm13
	vpxorq	%zmm9,%zmm1,%zmm9
	vpxorq	%zmm10,%zmm6,%zmm10
	vpxorq	%zmm12,%zmm7,%zmm12
	vpxorq	%zmm13,%zmm8,%zmm13
	vmovdqu64	224(%rsi),%ymm15
	vpclmulqdq	$0x01,%ymm15,%ymm4,%ymm7
	vpclmulqdq	$0x10,%ymm15,%ymm4,%ymm8
	vpclmulqdq	$0x11,%ymm15,%ymm4,%ymm1
	vpclmulqdq	$0x00,%ymm15,%ymm4,%ymm6

	vpxorq	%zmm12,%zmm7,%zmm7
	vpxorq	%zmm13,%zmm8,%zmm8
	vpxorq	%zmm9,%zmm1,%zmm1
	vpxorq	%zmm10,%zmm6,%zmm6

	vpxorq	%zmm8,%zmm7,%zmm7
	vpsrldq	$8,%zmm7,%zmm12
	vpslldq	$8,%zmm7,%zmm13
	vpxorq	%zmm12,%zmm1,%zmm1
	vpxorq	%zmm13,%zmm6,%zmm6
	vextracti64x4	$1,%zmm1,%ymm12
	vpxorq	%ymm12,%ymm1,%ymm1
	vextracti32x4	$1,%ymm1,%xmm12
	vpxorq	%xmm12,%xmm1,%xmm1
	vextracti64x4	$1,%zmm6,%ymm13
	vpxorq	%ymm13,%ymm6,%ymm6
	vextracti32x4	$1,%ymm6,%xmm13
	vpxorq	%xmm13,%xmm6,%xmm6
	vmovdqa64	POLY2(%rip),%xmm15


	vpclmulqdq	$0x01,%xmm6,%xmm15,%xmm7
	vpslldq	$8,%xmm7,%xmm7
	vpxorq	%xmm7,%xmm6,%xmm7


	vpclmulqdq	$0x00,%xmm7,%xmm15,%xmm8
	vpsrldq	$4,%xmm8,%xmm8
	vpclmulqdq	$0x10,%xmm7,%xmm15,%xmm14
	vpslldq	$4,%xmm14,%xmm14
	vpternlogq	$0x96,%xmm1,%xmm8,%xmm14

	jmp	.L_CALC_AAD_done_ctCFsBDDuiFxwGt
.L_AAD_blocks_9_ctCFsBDDuiFxwGt:
	subq	$1024,%r12
	kmovq	(%r12),%k1
	vmovdqu8	0(%r10),%zmm11
	vmovdqu8	64(%r10),%zmm3
	vmovdqu8	128(%r10),%xmm4{%k1}{z}
	vpshufb	%zmm16,%zmm11,%zmm11
	vpshufb	%zmm16,%zmm3,%zmm3
	vpshufb	%xmm16,%xmm4,%xmm4
	vpxorq	%zmm14,%zmm11,%zmm11
	vmovdqu64	112(%rsi),%zmm15
	vpclmulqdq	$0x11,%zmm15,%zmm11,%zmm1
	vpclmulqdq	$0x00,%zmm15,%zmm11,%zmm6
	vpclmulqdq	$0x01,%zmm15,%zmm11,%zmm7
	vpclmulqdq	$0x10,%zmm15,%zmm11,%zmm8
	vmovdqu64	176(%rsi),%zmm15
	vpclmulqdq	$0x11,%zmm15,%zmm3,%zmm9
	vpclmulqdq	$0x00,%zmm15,%zmm3,%zmm10
	vpclmulqdq	$0x01,%zmm15,%zmm3,%zmm12
	vpclmulqdq	$0x10,%zmm15,%zmm3,%zmm13
	vpxorq	%zmm9,%zmm1,%zmm9
	vpxorq	%zmm10,%zmm6,%zmm10
	vpxorq	%zmm12,%zmm7,%zmm12
	vpxorq	%zmm13,%zmm8,%zmm13
	vmovdqu64	240(%rsi),%xmm15
	vpclmulqdq	$0x01,%xmm15,%xmm4,%xmm7
	vpclmulqdq	$0x10,%xmm15,%xmm4,%xmm8
	vpclmulqdq	$0x11,%xmm15,%xmm4,%xmm1
	vpclmulqdq	$0x00,%xmm15,%xmm4,%xmm6

	vpxorq	%zmm12,%zmm7,%zmm7
	vpxorq	%zmm13,%zmm8,%zmm8
	vpxorq	%zmm9,%zmm1,%zmm1
	vpxorq	%zmm10,%zmm6,%zmm6

	vpxorq	%zmm8,%zmm7,%zmm7
	vpsrldq	$8,%zmm7,%zmm12
	vpslldq	$8,%zmm7,%zmm13
	vpxorq	%zmm12,%zmm1,%zmm1
	vpxorq	%zmm13,%zmm6,%zmm6
	vextracti64x4	$1,%zmm1,%ymm12
	vpxorq	%ymm12,%ymm1,%ymm1
	vextracti32x4	$1,%ymm1,%xmm12
	vpxorq	%xmm12,%xmm1,%xmm1
	vextracti64x4	$1,%zmm6,%ymm13
	vpxorq	%ymm13,%ymm6,%ymm6
	vextracti32x4	$1,%ymm6,%xmm13
	vpxorq	%xmm13,%xmm6,%xmm6
	vmovdqa64	POLY2(%rip),%xmm15


	vpclmulqdq	$0x01,%xmm6,%xmm15,%xmm7
	vpslldq	$8,%xmm7,%xmm7
	vpxorq	%xmm7,%xmm6,%xmm7


	vpclmulqdq	$0x00,%xmm7,%xmm15,%xmm8
	vpsrldq	$4,%xmm8,%xmm8
	vpclmulqdq	$0x10,%xmm7,%xmm15,%xmm14
	vpslldq	$4,%xmm14,%xmm14
	vpternlogq	$0x96,%xmm1,%xmm8,%xmm14

	jmp	.L_CALC_AAD_done_ctCFsBDDuiFxwGt
.L_AAD_blocks_8_ctCFsBDDuiFxwGt:
	subq	$512,%r12
	kmovq	(%r12),%k1
	vmovdqu8	0(%r10),%zmm11
	vmovdqu8	64(%r10),%zmm3{%k1}{z}
	vpshufb	%zmm16,%zmm11,%zmm11
	vpshufb	%zmm16,%zmm3,%zmm3
	vpxorq	%zmm14,%zmm11,%zmm11
	vmovdqu64	128(%rsi),%zmm15
	vpclmulqdq	$0x11,%zmm15,%zmm11,%zmm1
	vpclmulqdq	$0x00,%zmm15,%zmm11,%zmm6
	vpclmulqdq	$0x01,%zmm15,%zmm11,%zmm7
	vpclmulqdq	$0x10,%zmm15,%zmm11,%zmm8
	vmovdqu64	192(%rsi),%zmm15
	vpclmulqdq	$0x11,%zmm15,%zmm3,%zmm9
	vpclmulqdq	$0x00,%zmm15,%zmm3,%zmm10
	vpclmulqdq	$0x01,%zmm15,%zmm3,%zmm12
	vpclmulqdq	$0x10,%zmm15,%zmm3,%zmm13
	vpxorq	%zmm9,%zmm1,%zmm9
	vpxorq	%zmm10,%zmm6,%zmm10
	vpxorq	%zmm12,%zmm7,%zmm12
	vpxorq	%zmm13,%zmm8,%zmm13

	vpxorq	%zmm13,%zmm12,%zmm12
	vpsrldq	$8,%zmm12,%zmm7
	vpslldq	$8,%zmm12,%zmm8
	vpxorq	%zmm7,%zmm9,%zmm1
	vpxorq	%zmm8,%zmm10,%zmm6
	vextracti64x4	$1,%zmm1,%ymm12
	vpxorq	%ymm12,%ymm1,%ymm1
	vextracti32x4	$1,%ymm1,%xmm12
	vpxorq	%xmm12,%xmm1,%xmm1
	vextracti64x4	$1,%zmm6,%ymm13
	vpxorq	%ymm13,%ymm6,%ymm6
	vextracti32x4	$1,%ymm6,%xmm13
	vpxorq	%xmm13,%xmm6,%xmm6
	vmovdqa64	POLY2(%rip),%xmm15


	vpclmulqdq	$0x01,%xmm6,%xmm15,%xmm7
	vpslldq	$8,%xmm7,%xmm7
	vpxorq	%xmm7,%xmm6,%xmm7


	vpclmulqdq	$0x00,%xmm7,%xmm15,%xmm8
	vpsrldq	$4,%xmm8,%xmm8
	vpclmulqdq	$0x10,%xmm7,%xmm15,%xmm14
	vpslldq	$4,%xmm14,%xmm14
	vpternlogq	$0x96,%xmm1,%xmm8,%xmm14

	jmp	.L_CALC_AAD_done_ctCFsBDDuiFxwGt
.L_AAD_blocks_7_ctCFsBDDuiFxwGt:
	subq	$512,%r12
	kmovq	(%r12),%k1
	vmovdqu8	0(%r10),%zmm11
	vmovdqu8	64(%r10),%zmm3{%k1}{z}
	vpshufb	%zmm16,%zmm11,%zmm11
	vpshufb	%zmm16,%zmm3,%zmm3
	vpxorq	%zmm14,%zmm11,%zmm11
	vmovdqu64	144(%rsi),%zmm15
	vpclmulqdq	$0x11,%zmm15,%zmm11,%zmm9
	vpclmulqdq	$0x00,%zmm15,%zmm11,%zmm10
	vpclmulqdq	$0x01,%zmm15,%zmm11,%zmm12
	vpclmulqdq	$0x10,%zmm15,%zmm11,%zmm13
	vmovdqu64	208(%rsi),%ymm15
	vinserti64x2	$2,240(%rsi),%zmm15,%zmm15
	vpclmulqdq	$0x01,%zmm15,%zmm3,%zmm7
	vpclmulqdq	$0x10,%zmm15,%zmm3,%zmm8
	vpclmulqdq	$0x11,%zmm15,%zmm3,%zmm1
	vpclmulqdq	$0x00,%zmm15,%zmm3,%zmm6

	vpxorq	%zmm12,%zmm7,%zmm7
	vpxorq	%zmm13,%zmm8,%zmm8
	vpxorq	%zmm9,%zmm1,%zmm1
	vpxorq	%zmm10,%zmm6,%zmm6

	vpxorq	%zmm8,%zmm7,%zmm7
	vpsrldq	$8,%zmm7,%zmm12
	vpslldq	$8,%zmm7,%zmm13
	vpxorq	%zmm12,%zmm1,%zmm1
	vpxorq	%zmm13,%zmm6,%zmm6
	vextracti64x4	$1,%zmm1,%ymm12
	vpxorq	%ymm12,%ymm1,%ymm1
	vextracti32x4	$1,%ymm1,%xmm12
	vpxorq	%xmm12,%xmm1,%xmm1
	vextracti64x4	$1,%zmm6,%ymm13
	vpxorq	%ymm13,%ymm6,%ymm6
	vextracti32x4	$1,%ymm6,%xmm13
	vpxorq	%xmm13,%xmm6,%xmm6
	vmovdqa64	POLY2(%rip),%xmm15


	vpclmulqdq	$0x01,%xmm6,%xmm15,%xmm7
	vpslldq	$8,%xmm7,%xmm7
	vpxorq	%xmm7,%xmm6,%xmm7


	vpclmulqdq	$0x00,%xmm7,%xmm15,%xmm8
	vpsrldq	$4,%xmm8,%xmm8
	vpclmulqdq	$0x10,%xmm7,%xmm15,%xmm14
	vpslldq	$4,%xmm14,%xmm14
	vpternlogq	$0x96,%xmm1,%xmm8,%xmm14

	jmp	.L_CALC_AAD_done_ctCFsBDDuiFxwGt
.L_AAD_blocks_6_ctCFsBDDuiFxwGt:
	subq	$512,%r12
	kmovq	(%r12),%k1
	vmovdqu8	0(%r10),%zmm11
	vmovdqu8	64(%r10),%ymm3{%k1}{z}
	vpshufb	%zmm16,%zmm11,%zmm11
	vpshufb	%ymm16,%ymm3,%ymm3
	vpxorq	%zmm14,%zmm11,%zmm11
	vmovdqu64	160(%rsi),%zmm15
	vpclmulqdq	$0x11,%zmm15,%zmm11,%zmm9
	vpclmulqdq	$0x00,%zmm15,%zmm11,%zmm10
	vpclmulqdq	$0x01,%zmm15,%zmm11,%zmm12
	vpclmulqdq	$0x10,%zmm15,%zmm11,%zmm13
	vmovdqu64	224(%rsi),%ymm15
	vpclmulqdq	$0x01,%ymm15,%ymm3,%ymm7
	vpclmulqdq	$0x10,%ymm15,%ymm3,%ymm8
	vpclmulqdq	$0x11,%ymm15,%ymm3,%ymm1
	vpclmulqdq	$0x00,%ymm15,%ymm3,%ymm6

	vpxorq	%zmm12,%zmm7,%zmm7
	vpxorq	%zmm13,%zmm8,%zmm8
	vpxorq	%zmm9,%zmm1,%zmm1
	vpxorq	%zmm10,%zmm6,%zmm6

	vpxorq	%zmm8,%zmm7,%zmm7
	vpsrldq	$8,%zmm7,%zmm12
	vpslldq	$8,%zmm7,%zmm13
	vpxorq	%zmm12,%zmm1,%zmm1
	vpxorq	%zmm13,%zmm6,%zmm6
	vextracti64x4	$1,%zmm1,%ymm12
	vpxorq	%ymm12,%ymm1,%ymm1
	vextracti32x4	$1,%ymm1,%xmm12
	vpxorq	%xmm12,%xmm1,%xmm1
	vextracti64x4	$1,%zmm6,%ymm13
	vpxorq	%ymm13,%ymm6,%ymm6
	vextracti32x4	$1,%ymm6,%xmm13
	vpxorq	%xmm13,%xmm6,%xmm6
	vmovdqa64	POLY2(%rip),%xmm15


	vpclmulqdq	$0x01,%xmm6,%xmm15,%xmm7
	vpslldq	$8,%xmm7,%xmm7
	vpxorq	%xmm7,%xmm6,%xmm7


	vpclmulqdq	$0x00,%xmm7,%xmm15,%xmm8
	vpsrldq	$4,%xmm8,%xmm8
	vpclmulqdq	$0x10,%xmm7,%xmm15,%xmm14
	vpslldq	$4,%xmm14,%xmm14
	vpternlogq	$0x96,%xmm1,%xmm8,%xmm14

	jmp	.L_CALC_AAD_done_ctCFsBDDuiFxwGt
.L_AAD_blocks_5_ctCFsBDDuiFxwGt:
	subq	$512,%r12
	kmovq	(%r12),%k1
	vmovdqu8	0(%r10),%zmm11
	vmovdqu8	64(%r10),%xmm3{%k1}{z}
	vpshufb	%zmm16,%zmm11,%zmm11
	vpshufb	%xmm16,%xmm3,%xmm3
	vpxorq	%zmm14,%zmm11,%zmm11
	vmovdqu64	176(%rsi),%zmm15
	vpclmulqdq	$0x11,%zmm15,%zmm11,%zmm9
	vpclmulqdq	$0x00,%zmm15,%zmm11,%zmm10
	vpclmulqdq	$0x01,%zmm15,%zmm11,%zmm12
	vpclmulqdq	$0x10,%zmm15,%zmm11,%zmm13
	vmovdqu64	240(%rsi),%xmm15
	vpclmulqdq	$0x01,%xmm15,%xmm3,%xmm7
	vpclmulqdq	$0x10,%xmm15,%xmm3,%xmm8
	vpclmulqdq	$0x11,%xmm15,%xmm3,%xmm1
	vpclmulqdq	$0x00,%xmm15,%xmm3,%xmm6

	vpxorq	%zmm12,%zmm7,%zmm7
	vpxorq	%zmm13,%zmm8,%zmm8
	vpxorq	%zmm9,%zmm1,%zmm1
	vpxorq	%zmm10,%zmm6,%zmm6

	vpxorq	%zmm8,%zmm7,%zmm7
	vpsrldq	$8,%zmm7,%zmm12
	vpslldq	$8,%zmm7,%zmm13
	vpxorq	%zmm12,%zmm1,%zmm1
	vpxorq	%zmm13,%zmm6,%zmm6
	vextracti64x4	$1,%zmm1,%ymm12
	vpxorq	%ymm12,%ymm1,%ymm1
	vextracti32x4	$1,%ymm1,%xmm12
	vpxorq	%xmm12,%xmm1,%xmm1
	vextracti64x4	$1,%zmm6,%ymm13
	vpxorq	%ymm13,%ymm6,%ymm6
	vextracti32x4	$1,%ymm6,%xmm13
	vpxorq	%xmm13,%xmm6,%xmm6
	vmovdqa64	POLY2(%rip),%xmm15


	vpclmulqdq	$0x01,%xmm6,%xmm15,%xmm7
	vpslldq	$8,%xmm7,%xmm7
	vpxorq	%xmm7,%xmm6,%xmm7


	vpclmulqdq	$0x00,%xmm7,%xmm15,%xmm8
	vpsrldq	$4,%xmm8,%xmm8
	vpclmulqdq	$0x10,%xmm7,%xmm15,%xmm14
	vpslldq	$4,%xmm14,%xmm14
	vpternlogq	$0x96,%xmm1,%xmm8,%xmm14

	jmp	.L_CALC_AAD_done_ctCFsBDDuiFxwGt
.L_AAD_blocks_4_ctCFsBDDuiFxwGt:
	kmovq	(%r12),%k1
	vmovdqu8	0(%r10),%zmm11{%k1}{z}
	vpshufb	%zmm16,%zmm11,%zmm11
	vpxorq	%zmm14,%zmm11,%zmm11
	vmovdqu64	192(%rsi),%zmm15
	vpclmulqdq	$0x11,%zmm15,%zmm11,%zmm9
	vpclmulqdq	$0x00,%zmm15,%zmm11,%zmm10
	vpclmulqdq	$0x01,%zmm15,%zmm11,%zmm12
	vpclmulqdq	$0x10,%zmm15,%zmm11,%zmm13

	vpxorq	%zmm13,%zmm12,%zmm12
	vpsrldq	$8,%zmm12,%zmm7
	vpslldq	$8,%zmm12,%zmm8
	vpxorq	%zmm7,%zmm9,%zmm1
	vpxorq	%zmm8,%zmm10,%zmm6
	vextracti64x4	$1,%zmm1,%ymm12
	vpxorq	%ymm12,%ymm1,%ymm1
	vextracti32x4	$1,%ymm1,%xmm12
	vpxorq	%xmm12,%xmm1,%xmm1
	vextracti64x4	$1,%zmm6,%ymm13
	vpxorq	%ymm13,%ymm6,%ymm6
	vextracti32x4	$1,%ymm6,%xmm13
	vpxorq	%xmm13,%xmm6,%xmm6
	vmovdqa64	POLY2(%rip),%xmm15


	vpclmulqdq	$0x01,%xmm6,%xmm15,%xmm7
	vpslldq	$8,%xmm7,%xmm7
	vpxorq	%xmm7,%xmm6,%xmm7


	vpclmulqdq	$0x00,%xmm7,%xmm15,%xmm8
	vpsrldq	$4,%xmm8,%xmm8
	vpclmulqdq	$0x10,%xmm7,%xmm15,%xmm14
	vpslldq	$4,%xmm14,%xmm14
	vpternlogq	$0x96,%xmm1,%xmm8,%xmm14

	jmp	.L_CALC_AAD_done_ctCFsBDDuiFxwGt
.L_AAD_blocks_3_ctCFsBDDuiFxwGt:
	kmovq	(%r12),%k1
	vmovdqu8	0(%r10),%zmm11{%k1}{z}
	vpshufb	%zmm16,%zmm11,%zmm11
	vpxorq	%zmm14,%zmm11,%zmm11
	vmovdqu64	208(%rsi),%ymm15
	vinserti64x2	$2,240(%rsi),%zmm15,%zmm15
	vpclmulqdq	$0x01,%zmm15,%zmm11,%zmm7
	vpclmulqdq	$0x10,%zmm15,%zmm11,%zmm8
	vpclmulqdq	$0x11,%zmm15,%zmm11,%zmm1
	vpclmulqdq	$0x00,%zmm15,%zmm11,%zmm6

	vpxorq	%zmm8,%zmm7,%zmm7
	vpsrldq	$8,%zmm7,%zmm12
	vpslldq	$8,%zmm7,%zmm13
	vpxorq	%zmm12,%zmm1,%zmm1
	vpxorq	%zmm13,%zmm6,%zmm6
	vextracti64x4	$1,%zmm1,%ymm12
	vpxorq	%ymm12,%ymm1,%ymm1
	vextracti32x4	$1,%ymm1,%xmm12
	vpxorq	%xmm12,%xmm1,%xmm1
	vextracti64x4	$1,%zmm6,%ymm13
	vpxorq	%ymm13,%ymm6,%ymm6
	vextracti32x4	$1,%ymm6,%xmm13
	vpxorq	%xmm13,%xmm6,%xmm6
	vmovdqa64	POLY2(%rip),%xmm15


	vpclmulqdq	$0x01,%xmm6,%xmm15,%xmm7
	vpslldq	$8,%xmm7,%xmm7
	vpxorq	%xmm7,%xmm6,%xmm7


	vpclmulqdq	$0x00,%xmm7,%xmm15,%xmm8
	vpsrldq	$4,%xmm8,%xmm8
	vpclmulqdq	$0x10,%xmm7,%xmm15,%xmm14
	vpslldq	$4,%xmm14,%xmm14
	vpternlogq	$0x96,%xmm1,%xmm8,%xmm14

	jmp	.L_CALC_AAD_done_ctCFsBDDuiFxwGt
.L_AAD_blocks_2_ctCFsBDDuiFxwGt:
	kmovq	(%r12),%k1
	vmovdqu8	0(%r10),%ymm11{%k1}{z}
	vpshufb	%ymm16,%ymm11,%ymm11
	vpxorq	%zmm14,%zmm11,%zmm11
	vmovdqu64	224(%rsi),%ymm15
	vpclmulqdq	$0x01,%ymm15,%ymm11,%ymm7
	vpclmulqdq	$0x10,%ymm15,%ymm11,%ymm8
	vpclmulqdq	$0x11,%ymm15,%ymm11,%ymm1
	vpclmulqdq	$0x00,%ymm15,%ymm11,%ymm6

	vpxorq	%zmm8,%zmm7,%zmm7
	vpsrldq	$8,%zmm7,%zmm12
	vpslldq	$8,%zmm7,%zmm13
	vpxorq	%zmm12,%zmm1,%zmm1
	vpxorq	%zmm13,%zmm6,%zmm6
	vextracti64x4	$1,%zmm1,%ymm12
	vpxorq	%ymm12,%ymm1,%ymm1
	vextracti32x4	$1,%ymm1,%xmm12
	vpxorq	%xmm12,%xmm1,%xmm1
	vextracti64x4	$1,%zmm6,%ymm13
	vpxorq	%ymm13,%ymm6,%ymm6
	vextracti32x4	$1,%ymm6,%xmm13
	vpxorq	%xmm13,%xmm6,%xmm6
	vmovdqa64	POLY2(%rip),%xmm15


	vpclmulqdq	$0x01,%xmm6,%xmm15,%xmm7
	vpslldq	$8,%xmm7,%xmm7
	vpxorq	%xmm7,%xmm6,%xmm7


	vpclmulqdq	$0x00,%xmm7,%xmm15,%xmm8
	vpsrldq	$4,%xmm8,%xmm8
	vpclmulqdq	$0x10,%xmm7,%xmm15,%xmm14
	vpslldq	$4,%xmm14,%xmm14
	vpternlogq	$0x96,%xmm1,%xmm8,%xmm14

	jmp	.L_CALC_AAD_done_ctCFsBDDuiFxwGt
.L_AAD_blocks_1_ctCFsBDDuiFxwGt:
	kmovq	(%r12),%k1
	vmovdqu8	0(%r10),%xmm11{%k1}{z}
	vpshufb	%xmm16,%xmm11,%xmm11
	vpxorq	%zmm14,%zmm11,%zmm11
	vmovdqu64	240(%rsi),%xmm15
	vpclmulqdq	$0x01,%xmm15,%xmm11,%xmm7
	vpclmulqdq	$0x10,%xmm15,%xmm11,%xmm8
	vpclmulqdq	$0x11,%xmm15,%xmm11,%xmm1
	vpclmulqdq	$0x00,%xmm15,%xmm11,%xmm6

	vpxorq	%zmm8,%zmm7,%zmm7
	vpsrldq	$8,%zmm7,%zmm12
	vpslldq	$8,%zmm7,%zmm13
	vpxorq	%zmm12,%zmm1,%zmm1
	vpxorq	%zmm13,%zmm6,%zmm6
	vextracti64x4	$1,%zmm1,%ymm12
	vpxorq	%ymm12,%ymm1,%ymm1
	vextracti32x4	$1,%ymm1,%xmm12
	vpxorq	%xmm12,%xmm1,%xmm1
	vextracti64x4	$1,%zmm6,%ymm13
	vpxorq	%ymm13,%ymm6,%ymm6
	vextracti32x4	$1,%ymm6,%xmm13
	vpxorq	%xmm13,%xmm6,%xmm6
	vmovdqa64	POLY2(%rip),%xmm15


	vpclmulqdq	$0x01,%xmm6,%xmm15,%xmm7
	vpslldq	$8,%xmm7,%xmm7
	vpxorq	%xmm7,%xmm6,%xmm7


	vpclmulqdq	$0x00,%xmm7,%xmm15,%xmm8
	vpsrldq	$4,%xmm8,%xmm8
	vpclmulqdq	$0x10,%xmm7,%xmm15,%xmm14
	vpslldq	$4,%xmm14,%xmm14
	vpternlogq	$0x96,%xmm1,%xmm8,%xmm14

.L_CALC_AAD_done_ctCFsBDDuiFxwGt:
	vpshufb	SHUF_MASK(%rip),%xmm14,%xmm14
	vmovdqu64	%xmm14,(%rdi)
	cmpq	$256,%rcx
	jbe	.Lskip_hkeys_cleanup_GCcoxEbklChiEql
	vpxor	%xmm0,%xmm0,%xmm0
	vmovdqa64	%zmm0,0(%rsp)
	vmovdqa64	%zmm0,64(%rsp)
	vmovdqa64	%zmm0,128(%rsp)
	vmovdqa64	%zmm0,192(%rsp)
	vmovdqa64	%zmm0,256(%rsp)
	vmovdqa64	%zmm0,320(%rsp)
	vmovdqa64	%zmm0,384(%rsp)
	vmovdqa64	%zmm0,448(%rsp)
	vmovdqa64	%zmm0,512(%rsp)
	vmovdqa64	%zmm0,576(%rsp)
	vmovdqa64	%zmm0,640(%rsp)
	vmovdqa64	%zmm0,704(%rsp)
.Lskip_hkeys_cleanup_GCcoxEbklChiEql:
	vzeroupper
	leaq	(%rbp),%rsp
.cfi_def_cfa_register	%rsp
	popq	%r15
.cfi_adjust_cfa_offset	-8
.cfi_restore	%r15
	popq	%r14
.cfi_adjust_cfa_offset	-8
.cfi_restore	%r14
	popq	%r13
.cfi_adjust_cfa_offset	-8
.cfi_restore	%r13
	popq	%r12
.cfi_adjust_cfa_offset	-8
.cfi_restore	%r12
	popq	%rbp
.cfi_adjust_cfa_offset	-8
.cfi_restore	%rbp
	popq	%rbx
.cfi_adjust_cfa_offset	-8
.cfi_restore	%rbx
.Lexit_ghash:
	.byte	0xf3,0xc3
.Lghash_seh_end:
.cfi_endproc	
.size	gcm_ghash_avx512, .-gcm_ghash_avx512
.globl	gcm_setiv_avx512
.hidden gcm_setiv_avx512
.hidden	gcm_setiv_avx512
.type	gcm_setiv_avx512,@function
.align	32
gcm_setiv_avx512:
.cfi_startproc	
.Lsetiv_seh_begin:
.byte	243,15,30,250
	pushq	%rbx
.cfi_adjust_cfa_offset	8
.cfi_offset	%rbx,-16
.Lsetiv_seh_push_rbx:
	pushq	%rbp
.cfi_adjust_cfa_offset	8
.cfi_offset	%rbp,-24
.Lsetiv_seh_push_rbp:
	pushq	%r12
.cfi_adjust_cfa_offset	8
.cfi_offset	%r12,-32
.Lsetiv_seh_push_r12:
	pushq	%r13
.cfi_adjust_cfa_offset	8
.cfi_offset	%r13,-40
.Lsetiv_seh_push_r13:
	pushq	%r14
.cfi_adjust_cfa_offset	8
.cfi_offset	%r14,-48
.Lsetiv_seh_push_r14:
	pushq	%r15
.cfi_adjust_cfa_offset	8
.cfi_offset	%r15,-56
.Lsetiv_seh_push_r15:










	leaq	0(%rsp),%rbp
.cfi_def_cfa_register	%rbp
.Lsetiv_seh_setfp:

.Lsetiv_seh_prolog_end:
	subq	$820,%rsp
	andq	$(-64),%rsp
	cmpq	$12,%rcx
	je	iv_len_12_init_IV
	vpxor	%xmm2,%xmm2,%xmm2
	leaq	96(%rsi),%r13
	movq	%rdx,%r10
	movq	%rcx,%r11
	orq	%r11,%r11
	jz	.L_CALC_AAD_done_eapjjouFbpgixob

	xorq	%rbx,%rbx
	vmovdqa64	SHUF_MASK(%rip),%zmm16

.L_get_AAD_loop48x16_eapjjouFbpgixob:
	cmpq	$768,%r11
	jl	.L_exit_AAD_loop48x16_eapjjouFbpgixob
	vmovdqu64	0(%r10),%zmm11
	vmovdqu64	64(%r10),%zmm3
	vmovdqu64	128(%r10),%zmm4
	vmovdqu64	192(%r10),%zmm5
	vpshufb	%zmm16,%zmm11,%zmm11
	vpshufb	%zmm16,%zmm3,%zmm3
	vpshufb	%zmm16,%zmm4,%zmm4
	vpshufb	%zmm16,%zmm5,%zmm5
	testq	%rbx,%rbx
	jnz	.L_skip_hkeys_precomputation_flrrbqwppnvvoAt

	vmovdqu64	192(%r13),%zmm1
	vmovdqu64	%zmm1,704(%rsp)

	vmovdqu64	128(%r13),%zmm9
	vmovdqu64	%zmm9,640(%rsp)


	vshufi64x2	$0x00,%zmm9,%zmm9,%zmm9

	vmovdqu64	64(%r13),%zmm10
	vmovdqu64	%zmm10,576(%rsp)

	vmovdqu64	0(%r13),%zmm12
	vmovdqu64	%zmm12,512(%rsp)

	vpclmulqdq	$0x11,%zmm9,%zmm10,%zmm13
	vpclmulqdq	$0x00,%zmm9,%zmm10,%zmm15
	vpclmulqdq	$0x01,%zmm9,%zmm10,%zmm17
	vpclmulqdq	$0x10,%zmm9,%zmm10,%zmm10
	vpxorq	%zmm17,%zmm10,%zmm10

	vpsrldq	$8,%zmm10,%zmm17
	vpslldq	$8,%zmm10,%zmm10
	vpxorq	%zmm17,%zmm13,%zmm13
	vpxorq	%zmm15,%zmm10,%zmm10



	vmovdqu64	POLY2(%rip),%zmm17

	vpclmulqdq	$0x01,%zmm10,%zmm17,%zmm15
	vpslldq	$8,%zmm15,%zmm15
	vpxorq	%zmm15,%zmm10,%zmm10



	vpclmulqdq	$0x00,%zmm10,%zmm17,%zmm15
	vpsrldq	$4,%zmm15,%zmm15
	vpclmulqdq	$0x10,%zmm10,%zmm17,%zmm10
	vpslldq	$4,%zmm10,%zmm10

	vpternlogq	$0x96,%zmm15,%zmm13,%zmm10

	vmovdqu64	%zmm10,448(%rsp)

	vpclmulqdq	$0x11,%zmm9,%zmm12,%zmm13
	vpclmulqdq	$0x00,%zmm9,%zmm12,%zmm15
	vpclmulqdq	$0x01,%zmm9,%zmm12,%zmm17
	vpclmulqdq	$0x10,%zmm9,%zmm12,%zmm12
	vpxorq	%zmm17,%zmm12,%zmm12

	vpsrldq	$8,%zmm12,%zmm17
	vpslldq	$8,%zmm12,%zmm12
	vpxorq	%zmm17,%zmm13,%zmm13
	vpxorq	%zmm15,%zmm12,%zmm12



	vmovdqu64	POLY2(%rip),%zmm17

	vpclmulqdq	$0x01,%zmm12,%zmm17,%zmm15
	vpslldq	$8,%zmm15,%zmm15
	vpxorq	%zmm15,%zmm12,%zmm12



	vpclmulqdq	$0x00,%zmm12,%zmm17,%zmm15
	vpsrldq	$4,%zmm15,%zmm15
	vpclmulqdq	$0x10,%zmm12,%zmm17,%zmm12
	vpslldq	$4,%zmm12,%zmm12

	vpternlogq	$0x96,%zmm15,%zmm13,%zmm12

	vmovdqu64	%zmm12,384(%rsp)

	vpclmulqdq	$0x11,%zmm9,%zmm10,%zmm13
	vpclmulqdq	$0x00,%zmm9,%zmm10,%zmm15
	vpclmulqdq	$0x01,%zmm9,%zmm10,%zmm17
	vpclmulqdq	$0x10,%zmm9,%zmm10,%zmm10
	vpxorq	%zmm17,%zmm10,%zmm10

	vpsrldq	$8,%zmm10,%zmm17
	vpslldq	$8,%zmm10,%zmm10
	vpxorq	%zmm17,%zmm13,%zmm13
	vpxorq	%zmm15,%zmm10,%zmm10



	vmovdqu64	POLY2(%rip),%zmm17

	vpclmulqdq	$0x01,%zmm10,%zmm17,%zmm15
	vpslldq	$8,%zmm15,%zmm15
	vpxorq	%zmm15,%zmm10,%zmm10



	vpclmulqdq	$0x00,%zmm10,%zmm17,%zmm15
	vpsrldq	$4,%zmm15,%zmm15
	vpclmulqdq	$0x10,%zmm10,%zmm17,%zmm10
	vpslldq	$4,%zmm10,%zmm10

	vpternlogq	$0x96,%zmm15,%zmm13,%zmm10

	vmovdqu64	%zmm10,320(%rsp)

	vpclmulqdq	$0x11,%zmm9,%zmm12,%zmm13
	vpclmulqdq	$0x00,%zmm9,%zmm12,%zmm15
	vpclmulqdq	$0x01,%zmm9,%zmm12,%zmm17
	vpclmulqdq	$0x10,%zmm9,%zmm12,%zmm12
	vpxorq	%zmm17,%zmm12,%zmm12

	vpsrldq	$8,%zmm12,%zmm17
	vpslldq	$8,%zmm12,%zmm12
	vpxorq	%zmm17,%zmm13,%zmm13
	vpxorq	%zmm15,%zmm12,%zmm12



	vmovdqu64	POLY2(%rip),%zmm17

	vpclmulqdq	$0x01,%zmm12,%zmm17,%zmm15
	vpslldq	$8,%zmm15,%zmm15
	vpxorq	%zmm15,%zmm12,%zmm12



	vpclmulqdq	$0x00,%zmm12,%zmm17,%zmm15
	vpsrldq	$4,%zmm15,%zmm15
	vpclmulqdq	$0x10,%zmm12,%zmm17,%zmm12
	vpslldq	$4,%zmm12,%zmm12

	vpternlogq	$0x96,%zmm15,%zmm13,%zmm12

	vmovdqu64	%zmm12,256(%rsp)

	vpclmulqdq	$0x11,%zmm9,%zmm10,%zmm13
	vpclmulqdq	$0x00,%zmm9,%zmm10,%zmm15
	vpclmulqdq	$0x01,%zmm9,%zmm10,%zmm17
	vpclmulqdq	$0x10,%zmm9,%zmm10,%zmm10
	vpxorq	%zmm17,%zmm10,%zmm10

	vpsrldq	$8,%zmm10,%zmm17
	vpslldq	$8,%zmm10,%zmm10
	vpxorq	%zmm17,%zmm13,%zmm13
	vpxorq	%zmm15,%zmm10,%zmm10



	vmovdqu64	POLY2(%rip),%zmm17

	vpclmulqdq	$0x01,%zmm10,%zmm17,%zmm15
	vpslldq	$8,%zmm15,%zmm15
	vpxorq	%zmm15,%zmm10,%zmm10



	vpclmulqdq	$0x00,%zmm10,%zmm17,%zmm15
	vpsrldq	$4,%zmm15,%zmm15
	vpclmulqdq	$0x10,%zmm10,%zmm17,%zmm10
	vpslldq	$4,%zmm10,%zmm10

	vpternlogq	$0x96,%zmm15,%zmm13,%zmm10

	vmovdqu64	%zmm10,192(%rsp)

	vpclmulqdq	$0x11,%zmm9,%zmm12,%zmm13
	vpclmulqdq	$0x00,%zmm9,%zmm12,%zmm15
	vpclmulqdq	$0x01,%zmm9,%zmm12,%zmm17
	vpclmulqdq	$0x10,%zmm9,%zmm12,%zmm12
	vpxorq	%zmm17,%zmm12,%zmm12

	vpsrldq	$8,%zmm12,%zmm17
	vpslldq	$8,%zmm12,%zmm12
	vpxorq	%zmm17,%zmm13,%zmm13
	vpxorq	%zmm15,%zmm12,%zmm12



	vmovdqu64	POLY2(%rip),%zmm17

	vpclmulqdq	$0x01,%zmm12,%zmm17,%zmm15
	vpslldq	$8,%zmm15,%zmm15
	vpxorq	%zmm15,%zmm12,%zmm12



	vpclmulqdq	$0x00,%zmm12,%zmm17,%zmm15
	vpsrldq	$4,%zmm15,%zmm15
	vpclmulqdq	$0x10,%zmm12,%zmm17,%zmm12
	vpslldq	$4,%zmm12,%zmm12

	vpternlogq	$0x96,%zmm15,%zmm13,%zmm12

	vmovdqu64	%zmm12,128(%rsp)

	vpclmulqdq	$0x11,%zmm9,%zmm10,%zmm13
	vpclmulqdq	$0x00,%zmm9,%zmm10,%zmm15
	vpclmulqdq	$0x01,%zmm9,%zmm10,%zmm17
	vpclmulqdq	$0x10,%zmm9,%zmm10,%zmm10
	vpxorq	%zmm17,%zmm10,%zmm10

	vpsrldq	$8,%zmm10,%zmm17
	vpslldq	$8,%zmm10,%zmm10
	vpxorq	%zmm17,%zmm13,%zmm13
	vpxorq	%zmm15,%zmm10,%zmm10



	vmovdqu64	POLY2(%rip),%zmm17

	vpclmulqdq	$0x01,%zmm10,%zmm17,%zmm15
	vpslldq	$8,%zmm15,%zmm15
	vpxorq	%zmm15,%zmm10,%zmm10



	vpclmulqdq	$0x00,%zmm10,%zmm17,%zmm15
	vpsrldq	$4,%zmm15,%zmm15
	vpclmulqdq	$0x10,%zmm10,%zmm17,%zmm10
	vpslldq	$4,%zmm10,%zmm10

	vpternlogq	$0x96,%zmm15,%zmm13,%zmm10

	vmovdqu64	%zmm10,64(%rsp)

	vpclmulqdq	$0x11,%zmm9,%zmm12,%zmm13
	vpclmulqdq	$0x00,%zmm9,%zmm12,%zmm15
	vpclmulqdq	$0x01,%zmm9,%zmm12,%zmm17
	vpclmulqdq	$0x10,%zmm9,%zmm12,%zmm12
	vpxorq	%zmm17,%zmm12,%zmm12

	vpsrldq	$8,%zmm12,%zmm17
	vpslldq	$8,%zmm12,%zmm12
	vpxorq	%zmm17,%zmm13,%zmm13
	vpxorq	%zmm15,%zmm12,%zmm12



	vmovdqu64	POLY2(%rip),%zmm17

	vpclmulqdq	$0x01,%zmm12,%zmm17,%zmm15
	vpslldq	$8,%zmm15,%zmm15
	vpxorq	%zmm15,%zmm12,%zmm12



	vpclmulqdq	$0x00,%zmm12,%zmm17,%zmm15
	vpsrldq	$4,%zmm15,%zmm15
	vpclmulqdq	$0x10,%zmm12,%zmm17,%zmm12
	vpslldq	$4,%zmm12,%zmm12

	vpternlogq	$0x96,%zmm15,%zmm13,%zmm12

	vmovdqu64	%zmm12,0(%rsp)
.L_skip_hkeys_precomputation_flrrbqwppnvvoAt:
	movq	$1,%rbx
	vpxorq	%zmm2,%zmm11,%zmm11
	vmovdqu64	0(%rsp),%zmm19
	vpclmulqdq	$0x11,%zmm19,%zmm11,%zmm1
	vpclmulqdq	$0x00,%zmm19,%zmm11,%zmm9
	vpclmulqdq	$0x01,%zmm19,%zmm11,%zmm10
	vpclmulqdq	$0x10,%zmm19,%zmm11,%zmm12
	vmovdqu64	64(%rsp),%zmm19
	vpclmulqdq	$0x11,%zmm19,%zmm3,%zmm13
	vpclmulqdq	$0x00,%zmm19,%zmm3,%zmm15
	vpclmulqdq	$0x01,%zmm19,%zmm3,%zmm17
	vpclmulqdq	$0x10,%zmm19,%zmm3,%zmm18
	vpxorq	%zmm17,%zmm10,%zmm7
	vpxorq	%zmm13,%zmm1,%zmm6
	vpxorq	%zmm15,%zmm9,%zmm8
	vpternlogq	$0x96,%zmm18,%zmm12,%zmm7
	vmovdqu64	128(%rsp),%zmm19
	vpclmulqdq	$0x11,%zmm19,%zmm4,%zmm1
	vpclmulqdq	$0x00,%zmm19,%zmm4,%zmm9
	vpclmulqdq	$0x01,%zmm19,%zmm4,%zmm10
	vpclmulqdq	$0x10,%zmm19,%zmm4,%zmm12
	vmovdqu64	192(%rsp),%zmm19
	vpclmulqdq	$0x11,%zmm19,%zmm5,%zmm13
	vpclmulqdq	$0x00,%zmm19,%zmm5,%zmm15
	vpclmulqdq	$0x01,%zmm19,%zmm5,%zmm17
	vpclmulqdq	$0x10,%zmm19,%zmm5,%zmm18

	vpternlogq	$0x96,%zmm17,%zmm10,%zmm7
	vpternlogq	$0x96,%zmm13,%zmm1,%zmm6
	vpternlogq	$0x96,%zmm15,%zmm9,%zmm8
	vpternlogq	$0x96,%zmm18,%zmm12,%zmm7
	vmovdqu64	256(%r10),%zmm11
	vmovdqu64	320(%r10),%zmm3
	vmovdqu64	384(%r10),%zmm4
	vmovdqu64	448(%r10),%zmm5
	vpshufb	%zmm16,%zmm11,%zmm11
	vpshufb	%zmm16,%zmm3,%zmm3
	vpshufb	%zmm16,%zmm4,%zmm4
	vpshufb	%zmm16,%zmm5,%zmm5
	vmovdqu64	256(%rsp),%zmm19
	vpclmulqdq	$0x11,%zmm19,%zmm11,%zmm1
	vpclmulqdq	$0x00,%zmm19,%zmm11,%zmm9
	vpclmulqdq	$0x01,%zmm19,%zmm11,%zmm10
	vpclmulqdq	$0x10,%zmm19,%zmm11,%zmm12
	vmovdqu64	320(%rsp),%zmm19
	vpclmulqdq	$0x11,%zmm19,%zmm3,%zmm13
	vpclmulqdq	$0x00,%zmm19,%zmm3,%zmm15
	vpclmulqdq	$0x01,%zmm19,%zmm3,%zmm17
	vpclmulqdq	$0x10,%zmm19,%zmm3,%zmm18
	vpternlogq	$0x96,%zmm17,%zmm10,%zmm7
	vpternlogq	$0x96,%zmm13,%zmm1,%zmm6
	vpternlogq	$0x96,%zmm15,%zmm9,%zmm8
	vpternlogq	$0x96,%zmm18,%zmm12,%zmm7
	vmovdqu64	384(%rsp),%zmm19
	vpclmulqdq	$0x11,%zmm19,%zmm4,%zmm1
	vpclmulqdq	$0x00,%zmm19,%zmm4,%zmm9
	vpclmulqdq	$0x01,%zmm19,%zmm4,%zmm10
	vpclmulqdq	$0x10,%zmm19,%zmm4,%zmm12
	vmovdqu64	448(%rsp),%zmm19
	vpclmulqdq	$0x11,%zmm19,%zmm5,%zmm13
	vpclmulqdq	$0x00,%zmm19,%zmm5,%zmm15
	vpclmulqdq	$0x01,%zmm19,%zmm5,%zmm17
	vpclmulqdq	$0x10,%zmm19,%zmm5,%zmm18

	vpternlogq	$0x96,%zmm17,%zmm10,%zmm7
	vpternlogq	$0x96,%zmm13,%zmm1,%zmm6
	vpternlogq	$0x96,%zmm15,%zmm9,%zmm8
	vpternlogq	$0x96,%zmm18,%zmm12,%zmm7
	vmovdqu64	512(%r10),%zmm11
	vmovdqu64	576(%r10),%zmm3
	vmovdqu64	640(%r10),%zmm4
	vmovdqu64	704(%r10),%zmm5
	vpshufb	%zmm16,%zmm11,%zmm11
	vpshufb	%zmm16,%zmm3,%zmm3
	vpshufb	%zmm16,%zmm4,%zmm4
	vpshufb	%zmm16,%zmm5,%zmm5
	vmovdqu64	512(%rsp),%zmm19
	vpclmulqdq	$0x11,%zmm19,%zmm11,%zmm1
	vpclmulqdq	$0x00,%zmm19,%zmm11,%zmm9
	vpclmulqdq	$0x01,%zmm19,%zmm11,%zmm10
	vpclmulqdq	$0x10,%zmm19,%zmm11,%zmm12
	vmovdqu64	576(%rsp),%zmm19
	vpclmulqdq	$0x11,%zmm19,%zmm3,%zmm13
	vpclmulqdq	$0x00,%zmm19,%zmm3,%zmm15
	vpclmulqdq	$0x01,%zmm19,%zmm3,%zmm17
	vpclmulqdq	$0x10,%zmm19,%zmm3,%zmm18
	vpternlogq	$0x96,%zmm17,%zmm10,%zmm7
	vpternlogq	$0x96,%zmm13,%zmm1,%zmm6
	vpternlogq	$0x96,%zmm15,%zmm9,%zmm8
	vpternlogq	$0x96,%zmm18,%zmm12,%zmm7
	vmovdqu64	640(%rsp),%zmm19
	vpclmulqdq	$0x11,%zmm19,%zmm4,%zmm1
	vpclmulqdq	$0x00,%zmm19,%zmm4,%zmm9
	vpclmulqdq	$0x01,%zmm19,%zmm4,%zmm10
	vpclmulqdq	$0x10,%zmm19,%zmm4,%zmm12
	vmovdqu64	704(%rsp),%zmm19
	vpclmulqdq	$0x11,%zmm19,%zmm5,%zmm13
	vpclmulqdq	$0x00,%zmm19,%zmm5,%zmm15
	vpclmulqdq	$0x01,%zmm19,%zmm5,%zmm17
	vpclmulqdq	$0x10,%zmm19,%zmm5,%zmm18

	vpternlogq	$0x96,%zmm17,%zmm10,%zmm7
	vpternlogq	$0x96,%zmm13,%zmm1,%zmm6
	vpternlogq	$0x96,%zmm15,%zmm9,%zmm8
	vpternlogq	$0x96,%zmm18,%zmm12,%zmm7

	vpsrldq	$8,%zmm7,%zmm1
	vpslldq	$8,%zmm7,%zmm9
	vpxorq	%zmm1,%zmm6,%zmm6
	vpxorq	%zmm9,%zmm8,%zmm8
	vextracti64x4	$1,%zmm6,%ymm1
	vpxorq	%ymm1,%ymm6,%ymm6
	vextracti32x4	$1,%ymm6,%xmm1
	vpxorq	%xmm1,%xmm6,%xmm6
	vextracti64x4	$1,%zmm8,%ymm9
	vpxorq	%ymm9,%ymm8,%ymm8
	vextracti32x4	$1,%ymm8,%xmm9
	vpxorq	%xmm9,%xmm8,%xmm8
	vmovdqa64	POLY2(%rip),%xmm10


	vpclmulqdq	$0x01,%xmm8,%xmm10,%xmm1
	vpslldq	$8,%xmm1,%xmm1
	vpxorq	%xmm1,%xmm8,%xmm1


	vpclmulqdq	$0x00,%xmm1,%xmm10,%xmm9
	vpsrldq	$4,%xmm9,%xmm9
	vpclmulqdq	$0x10,%xmm1,%xmm10,%xmm2
	vpslldq	$4,%xmm2,%xmm2
	vpternlogq	$0x96,%xmm6,%xmm9,%xmm2

	subq	$768,%r11
	je	.L_CALC_AAD_done_eapjjouFbpgixob

	addq	$768,%r10
	jmp	.L_get_AAD_loop48x16_eapjjouFbpgixob

.L_exit_AAD_loop48x16_eapjjouFbpgixob:

	cmpq	$512,%r11
	jl	.L_less_than_32x16_eapjjouFbpgixob

	vmovdqu64	0(%r10),%zmm11
	vmovdqu64	64(%r10),%zmm3
	vmovdqu64	128(%r10),%zmm4
	vmovdqu64	192(%r10),%zmm5
	vpshufb	%zmm16,%zmm11,%zmm11
	vpshufb	%zmm16,%zmm3,%zmm3
	vpshufb	%zmm16,%zmm4,%zmm4
	vpshufb	%zmm16,%zmm5,%zmm5
	testq	%rbx,%rbx
	jnz	.L_skip_hkeys_precomputation_gyDyBakintAAqsB

	vmovdqu64	192(%r13),%zmm1
	vmovdqu64	%zmm1,704(%rsp)

	vmovdqu64	128(%r13),%zmm9
	vmovdqu64	%zmm9,640(%rsp)


	vshufi64x2	$0x00,%zmm9,%zmm9,%zmm9

	vmovdqu64	64(%r13),%zmm10
	vmovdqu64	%zmm10,576(%rsp)

	vmovdqu64	0(%r13),%zmm12
	vmovdqu64	%zmm12,512(%rsp)

	vpclmulqdq	$0x11,%zmm9,%zmm10,%zmm13
	vpclmulqdq	$0x00,%zmm9,%zmm10,%zmm15
	vpclmulqdq	$0x01,%zmm9,%zmm10,%zmm17
	vpclmulqdq	$0x10,%zmm9,%zmm10,%zmm10
	vpxorq	%zmm17,%zmm10,%zmm10

	vpsrldq	$8,%zmm10,%zmm17
	vpslldq	$8,%zmm10,%zmm10
	vpxorq	%zmm17,%zmm13,%zmm13
	vpxorq	%zmm15,%zmm10,%zmm10



	vmovdqu64	POLY2(%rip),%zmm17

	vpclmulqdq	$0x01,%zmm10,%zmm17,%zmm15
	vpslldq	$8,%zmm15,%zmm15
	vpxorq	%zmm15,%zmm10,%zmm10



	vpclmulqdq	$0x00,%zmm10,%zmm17,%zmm15
	vpsrldq	$4,%zmm15,%zmm15
	vpclmulqdq	$0x10,%zmm10,%zmm17,%zmm10
	vpslldq	$4,%zmm10,%zmm10

	vpternlogq	$0x96,%zmm15,%zmm13,%zmm10

	vmovdqu64	%zmm10,448(%rsp)

	vpclmulqdq	$0x11,%zmm9,%zmm12,%zmm13
	vpclmulqdq	$0x00,%zmm9,%zmm12,%zmm15
	vpclmulqdq	$0x01,%zmm9,%zmm12,%zmm17
	vpclmulqdq	$0x10,%zmm9,%zmm12,%zmm12
	vpxorq	%zmm17,%zmm12,%zmm12

	vpsrldq	$8,%zmm12,%zmm17
	vpslldq	$8,%zmm12,%zmm12
	vpxorq	%zmm17,%zmm13,%zmm13
	vpxorq	%zmm15,%zmm12,%zmm12



	vmovdqu64	POLY2(%rip),%zmm17

	vpclmulqdq	$0x01,%zmm12,%zmm17,%zmm15
	vpslldq	$8,%zmm15,%zmm15
	vpxorq	%zmm15,%zmm12,%zmm12



	vpclmulqdq	$0x00,%zmm12,%zmm17,%zmm15
	vpsrldq	$4,%zmm15,%zmm15
	vpclmulqdq	$0x10,%zmm12,%zmm17,%zmm12
	vpslldq	$4,%zmm12,%zmm12

	vpternlogq	$0x96,%zmm15,%zmm13,%zmm12

	vmovdqu64	%zmm12,384(%rsp)

	vpclmulqdq	$0x11,%zmm9,%zmm10,%zmm13
	vpclmulqdq	$0x00,%zmm9,%zmm10,%zmm15
	vpclmulqdq	$0x01,%zmm9,%zmm10,%zmm17
	vpclmulqdq	$0x10,%zmm9,%zmm10,%zmm10
	vpxorq	%zmm17,%zmm10,%zmm10

	vpsrldq	$8,%zmm10,%zmm17
	vpslldq	$8,%zmm10,%zmm10
	vpxorq	%zmm17,%zmm13,%zmm13
	vpxorq	%zmm15,%zmm10,%zmm10



	vmovdqu64	POLY2(%rip),%zmm17

	vpclmulqdq	$0x01,%zmm10,%zmm17,%zmm15
	vpslldq	$8,%zmm15,%zmm15
	vpxorq	%zmm15,%zmm10,%zmm10



	vpclmulqdq	$0x00,%zmm10,%zmm17,%zmm15
	vpsrldq	$4,%zmm15,%zmm15
	vpclmulqdq	$0x10,%zmm10,%zmm17,%zmm10
	vpslldq	$4,%zmm10,%zmm10

	vpternlogq	$0x96,%zmm15,%zmm13,%zmm10

	vmovdqu64	%zmm10,320(%rsp)

	vpclmulqdq	$0x11,%zmm9,%zmm12,%zmm13
	vpclmulqdq	$0x00,%zmm9,%zmm12,%zmm15
	vpclmulqdq	$0x01,%zmm9,%zmm12,%zmm17
	vpclmulqdq	$0x10,%zmm9,%zmm12,%zmm12
	vpxorq	%zmm17,%zmm12,%zmm12

	vpsrldq	$8,%zmm12,%zmm17
	vpslldq	$8,%zmm12,%zmm12
	vpxorq	%zmm17,%zmm13,%zmm13
	vpxorq	%zmm15,%zmm12,%zmm12



	vmovdqu64	POLY2(%rip),%zmm17

	vpclmulqdq	$0x01,%zmm12,%zmm17,%zmm15
	vpslldq	$8,%zmm15,%zmm15
	vpxorq	%zmm15,%zmm12,%zmm12



	vpclmulqdq	$0x00,%zmm12,%zmm17,%zmm15
	vpsrldq	$4,%zmm15,%zmm15
	vpclmulqdq	$0x10,%zmm12,%zmm17,%zmm12
	vpslldq	$4,%zmm12,%zmm12

	vpternlogq	$0x96,%zmm15,%zmm13,%zmm12

	vmovdqu64	%zmm12,256(%rsp)
.L_skip_hkeys_precomputation_gyDyBakintAAqsB:
	movq	$1,%rbx
	vpxorq	%zmm2,%zmm11,%zmm11
	vmovdqu64	256(%rsp),%zmm19
	vpclmulqdq	$0x11,%zmm19,%zmm11,%zmm1
	vpclmulqdq	$0x00,%zmm19,%zmm11,%zmm9
	vpclmulqdq	$0x01,%zmm19,%zmm11,%zmm10
	vpclmulqdq	$0x10,%zmm19,%zmm11,%zmm12
	vmovdqu64	320(%rsp),%zmm19
	vpclmulqdq	$0x11,%zmm19,%zmm3,%zmm13
	vpclmulqdq	$0x00,%zmm19,%zmm3,%zmm15
	vpclmulqdq	$0x01,%zmm19,%zmm3,%zmm17
	vpclmulqdq	$0x10,%zmm19,%zmm3,%zmm18
	vpxorq	%zmm17,%zmm10,%zmm7
	vpxorq	%zmm13,%zmm1,%zmm6
	vpxorq	%zmm15,%zmm9,%zmm8
	vpternlogq	$0x96,%zmm18,%zmm12,%zmm7
	vmovdqu64	384(%rsp),%zmm19
	vpclmulqdq	$0x11,%zmm19,%zmm4,%zmm1
	vpclmulqdq	$0x00,%zmm19,%zmm4,%zmm9
	vpclmulqdq	$0x01,%zmm19,%zmm4,%zmm10
	vpclmulqdq	$0x10,%zmm19,%zmm4,%zmm12
	vmovdqu64	448(%rsp),%zmm19
	vpclmulqdq	$0x11,%zmm19,%zmm5,%zmm13
	vpclmulqdq	$0x00,%zmm19,%zmm5,%zmm15
	vpclmulqdq	$0x01,%zmm19,%zmm5,%zmm17
	vpclmulqdq	$0x10,%zmm19,%zmm5,%zmm18

	vpternlogq	$0x96,%zmm17,%zmm10,%zmm7
	vpternlogq	$0x96,%zmm13,%zmm1,%zmm6
	vpternlogq	$0x96,%zmm15,%zmm9,%zmm8
	vpternlogq	$0x96,%zmm18,%zmm12,%zmm7
	vmovdqu64	256(%r10),%zmm11
	vmovdqu64	320(%r10),%zmm3
	vmovdqu64	384(%r10),%zmm4
	vmovdqu64	448(%r10),%zmm5
	vpshufb	%zmm16,%zmm11,%zmm11
	vpshufb	%zmm16,%zmm3,%zmm3
	vpshufb	%zmm16,%zmm4,%zmm4
	vpshufb	%zmm16,%zmm5,%zmm5
	vmovdqu64	512(%rsp),%zmm19
	vpclmulqdq	$0x11,%zmm19,%zmm11,%zmm1
	vpclmulqdq	$0x00,%zmm19,%zmm11,%zmm9
	vpclmulqdq	$0x01,%zmm19,%zmm11,%zmm10
	vpclmulqdq	$0x10,%zmm19,%zmm11,%zmm12
	vmovdqu64	576(%rsp),%zmm19
	vpclmulqdq	$0x11,%zmm19,%zmm3,%zmm13
	vpclmulqdq	$0x00,%zmm19,%zmm3,%zmm15
	vpclmulqdq	$0x01,%zmm19,%zmm3,%zmm17
	vpclmulqdq	$0x10,%zmm19,%zmm3,%zmm18
	vpternlogq	$0x96,%zmm17,%zmm10,%zmm7
	vpternlogq	$0x96,%zmm13,%zmm1,%zmm6
	vpternlogq	$0x96,%zmm15,%zmm9,%zmm8
	vpternlogq	$0x96,%zmm18,%zmm12,%zmm7
	vmovdqu64	640(%rsp),%zmm19
	vpclmulqdq	$0x11,%zmm19,%zmm4,%zmm1
	vpclmulqdq	$0x00,%zmm19,%zmm4,%zmm9
	vpclmulqdq	$0x01,%zmm19,%zmm4,%zmm10
	vpclmulqdq	$0x10,%zmm19,%zmm4,%zmm12
	vmovdqu64	704(%rsp),%zmm19
	vpclmulqdq	$0x11,%zmm19,%zmm5,%zmm13
	vpclmulqdq	$0x00,%zmm19,%zmm5,%zmm15
	vpclmulqdq	$0x01,%zmm19,%zmm5,%zmm17
	vpclmulqdq	$0x10,%zmm19,%zmm5,%zmm18

	vpternlogq	$0x96,%zmm17,%zmm10,%zmm7
	vpternlogq	$0x96,%zmm13,%zmm1,%zmm6
	vpternlogq	$0x96,%zmm15,%zmm9,%zmm8
	vpternlogq	$0x96,%zmm18,%zmm12,%zmm7

	vpsrldq	$8,%zmm7,%zmm1
	vpslldq	$8,%zmm7,%zmm9
	vpxorq	%zmm1,%zmm6,%zmm6
	vpxorq	%zmm9,%zmm8,%zmm8
	vextracti64x4	$1,%zmm6,%ymm1
	vpxorq	%ymm1,%ymm6,%ymm6
	vextracti32x4	$1,%ymm6,%xmm1
	vpxorq	%xmm1,%xmm6,%xmm6
	vextracti64x4	$1,%zmm8,%ymm9
	vpxorq	%ymm9,%ymm8,%ymm8
	vextracti32x4	$1,%ymm8,%xmm9
	vpxorq	%xmm9,%xmm8,%xmm8
	vmovdqa64	POLY2(%rip),%xmm10


	vpclmulqdq	$0x01,%xmm8,%xmm10,%xmm1
	vpslldq	$8,%xmm1,%xmm1
	vpxorq	%xmm1,%xmm8,%xmm1


	vpclmulqdq	$0x00,%xmm1,%xmm10,%xmm9
	vpsrldq	$4,%xmm9,%xmm9
	vpclmulqdq	$0x10,%xmm1,%xmm10,%xmm2
	vpslldq	$4,%xmm2,%xmm2
	vpternlogq	$0x96,%xmm6,%xmm9,%xmm2

	subq	$512,%r11
	je	.L_CALC_AAD_done_eapjjouFbpgixob

	addq	$512,%r10
	jmp	.L_less_than_16x16_eapjjouFbpgixob

.L_less_than_32x16_eapjjouFbpgixob:
	cmpq	$256,%r11
	jl	.L_less_than_16x16_eapjjouFbpgixob

	vmovdqu64	0(%r10),%zmm11
	vmovdqu64	64(%r10),%zmm3
	vmovdqu64	128(%r10),%zmm4
	vmovdqu64	192(%r10),%zmm5
	vpshufb	%zmm16,%zmm11,%zmm11
	vpshufb	%zmm16,%zmm3,%zmm3
	vpshufb	%zmm16,%zmm4,%zmm4
	vpshufb	%zmm16,%zmm5,%zmm5
	vpxorq	%zmm2,%zmm11,%zmm11
	vmovdqu64	0(%r13),%zmm19
	vpclmulqdq	$0x11,%zmm19,%zmm11,%zmm1
	vpclmulqdq	$0x00,%zmm19,%zmm11,%zmm9
	vpclmulqdq	$0x01,%zmm19,%zmm11,%zmm10
	vpclmulqdq	$0x10,%zmm19,%zmm11,%zmm12
	vmovdqu64	64(%r13),%zmm19
	vpclmulqdq	$0x11,%zmm19,%zmm3,%zmm13
	vpclmulqdq	$0x00,%zmm19,%zmm3,%zmm15
	vpclmulqdq	$0x01,%zmm19,%zmm3,%zmm17
	vpclmulqdq	$0x10,%zmm19,%zmm3,%zmm18
	vpxorq	%zmm17,%zmm10,%zmm7
	vpxorq	%zmm13,%zmm1,%zmm6
	vpxorq	%zmm15,%zmm9,%zmm8
	vpternlogq	$0x96,%zmm18,%zmm12,%zmm7
	vmovdqu64	128(%r13),%zmm19
	vpclmulqdq	$0x11,%zmm19,%zmm4,%zmm1
	vpclmulqdq	$0x00,%zmm19,%zmm4,%zmm9
	vpclmulqdq	$0x01,%zmm19,%zmm4,%zmm10
	vpclmulqdq	$0x10,%zmm19,%zmm4,%zmm12
	vmovdqu64	192(%r13),%zmm19
	vpclmulqdq	$0x11,%zmm19,%zmm5,%zmm13
	vpclmulqdq	$0x00,%zmm19,%zmm5,%zmm15
	vpclmulqdq	$0x01,%zmm19,%zmm5,%zmm17
	vpclmulqdq	$0x10,%zmm19,%zmm5,%zmm18

	vpternlogq	$0x96,%zmm17,%zmm10,%zmm7
	vpternlogq	$0x96,%zmm13,%zmm1,%zmm6
	vpternlogq	$0x96,%zmm15,%zmm9,%zmm8
	vpternlogq	$0x96,%zmm18,%zmm12,%zmm7

	vpsrldq	$8,%zmm7,%zmm1
	vpslldq	$8,%zmm7,%zmm9
	vpxorq	%zmm1,%zmm6,%zmm6
	vpxorq	%zmm9,%zmm8,%zmm8
	vextracti64x4	$1,%zmm6,%ymm1
	vpxorq	%ymm1,%ymm6,%ymm6
	vextracti32x4	$1,%ymm6,%xmm1
	vpxorq	%xmm1,%xmm6,%xmm6
	vextracti64x4	$1,%zmm8,%ymm9
	vpxorq	%ymm9,%ymm8,%ymm8
	vextracti32x4	$1,%ymm8,%xmm9
	vpxorq	%xmm9,%xmm8,%xmm8
	vmovdqa64	POLY2(%rip),%xmm10


	vpclmulqdq	$0x01,%xmm8,%xmm10,%xmm1
	vpslldq	$8,%xmm1,%xmm1
	vpxorq	%xmm1,%xmm8,%xmm1


	vpclmulqdq	$0x00,%xmm1,%xmm10,%xmm9
	vpsrldq	$4,%xmm9,%xmm9
	vpclmulqdq	$0x10,%xmm1,%xmm10,%xmm2
	vpslldq	$4,%xmm2,%xmm2
	vpternlogq	$0x96,%xmm6,%xmm9,%xmm2

	subq	$256,%r11
	je	.L_CALC_AAD_done_eapjjouFbpgixob

	addq	$256,%r10

.L_less_than_16x16_eapjjouFbpgixob:

	leaq	byte64_len_to_mask_table(%rip),%r12
	leaq	(%r12,%r11,8),%r12


	addl	$15,%r11d
	shrl	$4,%r11d
	cmpl	$2,%r11d
	jb	.L_AAD_blocks_1_eapjjouFbpgixob
	je	.L_AAD_blocks_2_eapjjouFbpgixob
	cmpl	$4,%r11d
	jb	.L_AAD_blocks_3_eapjjouFbpgixob
	je	.L_AAD_blocks_4_eapjjouFbpgixob
	cmpl	$6,%r11d
	jb	.L_AAD_blocks_5_eapjjouFbpgixob
	je	.L_AAD_blocks_6_eapjjouFbpgixob
	cmpl	$8,%r11d
	jb	.L_AAD_blocks_7_eapjjouFbpgixob
	je	.L_AAD_blocks_8_eapjjouFbpgixob
	cmpl	$10,%r11d
	jb	.L_AAD_blocks_9_eapjjouFbpgixob
	je	.L_AAD_blocks_10_eapjjouFbpgixob
	cmpl	$12,%r11d
	jb	.L_AAD_blocks_11_eapjjouFbpgixob
	je	.L_AAD_blocks_12_eapjjouFbpgixob
	cmpl	$14,%r11d
	jb	.L_AAD_blocks_13_eapjjouFbpgixob
	je	.L_AAD_blocks_14_eapjjouFbpgixob
	cmpl	$15,%r11d
	je	.L_AAD_blocks_15_eapjjouFbpgixob
.L_AAD_blocks_16_eapjjouFbpgixob:
	subq	$1536,%r12
	kmovq	(%r12),%k1
	vmovdqu8	0(%r10),%zmm11
	vmovdqu8	64(%r10),%zmm3
	vmovdqu8	128(%r10),%zmm4
	vmovdqu8	192(%r10),%zmm5{%k1}{z}
	vpshufb	%zmm16,%zmm11,%zmm11
	vpshufb	%zmm16,%zmm3,%zmm3
	vpshufb	%zmm16,%zmm4,%zmm4
	vpshufb	%zmm16,%zmm5,%zmm5
	vpxorq	%zmm2,%zmm11,%zmm11
	vmovdqu64	0(%r13),%zmm15
	vpclmulqdq	$0x11,%zmm15,%zmm11,%zmm1
	vpclmulqdq	$0x00,%zmm15,%zmm11,%zmm6
	vpclmulqdq	$0x01,%zmm15,%zmm11,%zmm7
	vpclmulqdq	$0x10,%zmm15,%zmm11,%zmm8
	vmovdqu64	64(%r13),%zmm15
	vpclmulqdq	$0x11,%zmm15,%zmm3,%zmm9
	vpclmulqdq	$0x00,%zmm15,%zmm3,%zmm10
	vpclmulqdq	$0x01,%zmm15,%zmm3,%zmm12
	vpclmulqdq	$0x10,%zmm15,%zmm3,%zmm13
	vmovdqu64	128(%r13),%zmm15
	vpclmulqdq	$0x11,%zmm15,%zmm4,%zmm11
	vpclmulqdq	$0x00,%zmm15,%zmm4,%zmm3
	vpternlogq	$0x96,%zmm9,%zmm11,%zmm1
	vpternlogq	$0x96,%zmm10,%zmm3,%zmm6
	vpclmulqdq	$0x01,%zmm15,%zmm4,%zmm11
	vpclmulqdq	$0x10,%zmm15,%zmm4,%zmm3
	vpternlogq	$0x96,%zmm12,%zmm11,%zmm7
	vpternlogq	$0x96,%zmm13,%zmm3,%zmm8
	vmovdqu64	192(%r13),%zmm15
	vpclmulqdq	$0x11,%zmm15,%zmm5,%zmm9
	vpclmulqdq	$0x00,%zmm15,%zmm5,%zmm10
	vpclmulqdq	$0x01,%zmm15,%zmm5,%zmm12
	vpclmulqdq	$0x10,%zmm15,%zmm5,%zmm13
	vpxorq	%zmm9,%zmm1,%zmm9
	vpxorq	%zmm10,%zmm6,%zmm10
	vpxorq	%zmm12,%zmm7,%zmm12
	vpxorq	%zmm13,%zmm8,%zmm13

	vpxorq	%zmm13,%zmm12,%zmm12
	vpsrldq	$8,%zmm12,%zmm7
	vpslldq	$8,%zmm12,%zmm8
	vpxorq	%zmm7,%zmm9,%zmm1
	vpxorq	%zmm8,%zmm10,%zmm6
	vextracti64x4	$1,%zmm1,%ymm12
	vpxorq	%ymm12,%ymm1,%ymm1
	vextracti32x4	$1,%ymm1,%xmm12
	vpxorq	%xmm12,%xmm1,%xmm1
	vextracti64x4	$1,%zmm6,%ymm13
	vpxorq	%ymm13,%ymm6,%ymm6
	vextracti32x4	$1,%ymm6,%xmm13
	vpxorq	%xmm13,%xmm6,%xmm6
	vmovdqa64	POLY2(%rip),%xmm15


	vpclmulqdq	$0x01,%xmm6,%xmm15,%xmm7
	vpslldq	$8,%xmm7,%xmm7
	vpxorq	%xmm7,%xmm6,%xmm7


	vpclmulqdq	$0x00,%xmm7,%xmm15,%xmm8
	vpsrldq	$4,%xmm8,%xmm8
	vpclmulqdq	$0x10,%xmm7,%xmm15,%xmm2
	vpslldq	$4,%xmm2,%xmm2
	vpternlogq	$0x96,%xmm1,%xmm8,%xmm2

	jmp	.L_CALC_AAD_done_eapjjouFbpgixob
.L_AAD_blocks_15_eapjjouFbpgixob:
	subq	$1536,%r12
	kmovq	(%r12),%k1
	vmovdqu8	0(%r10),%zmm11
	vmovdqu8	64(%r10),%zmm3
	vmovdqu8	128(%r10),%zmm4
	vmovdqu8	192(%r10),%zmm5{%k1}{z}
	vpshufb	%zmm16,%zmm11,%zmm11
	vpshufb	%zmm16,%zmm3,%zmm3
	vpshufb	%zmm16,%zmm4,%zmm4
	vpshufb	%zmm16,%zmm5,%zmm5
	vpxorq	%zmm2,%zmm11,%zmm11
	vmovdqu64	16(%r13),%zmm15
	vpclmulqdq	$0x11,%zmm15,%zmm11,%zmm1
	vpclmulqdq	$0x00,%zmm15,%zmm11,%zmm6
	vpclmulqdq	$0x01,%zmm15,%zmm11,%zmm7
	vpclmulqdq	$0x10,%zmm15,%zmm11,%zmm8
	vmovdqu64	80(%r13),%zmm15
	vpclmulqdq	$0x11,%zmm15,%zmm3,%zmm9
	vpclmulqdq	$0x00,%zmm15,%zmm3,%zmm10
	vpclmulqdq	$0x01,%zmm15,%zmm3,%zmm12
	vpclmulqdq	$0x10,%zmm15,%zmm3,%zmm13
	vmovdqu64	144(%r13),%zmm15
	vpclmulqdq	$0x11,%zmm15,%zmm4,%zmm11
	vpclmulqdq	$0x00,%zmm15,%zmm4,%zmm3
	vpternlogq	$0x96,%zmm1,%zmm11,%zmm9
	vpternlogq	$0x96,%zmm6,%zmm3,%zmm10
	vpclmulqdq	$0x01,%zmm15,%zmm4,%zmm11
	vpclmulqdq	$0x10,%zmm15,%zmm4,%zmm3
	vpternlogq	$0x96,%zmm7,%zmm11,%zmm12
	vpternlogq	$0x96,%zmm8,%zmm3,%zmm13
	vmovdqu64	208(%r13),%ymm15
	vinserti64x2	$2,240(%r13),%zmm15,%zmm15
	vpclmulqdq	$0x01,%zmm15,%zmm5,%zmm7
	vpclmulqdq	$0x10,%zmm15,%zmm5,%zmm8
	vpclmulqdq	$0x11,%zmm15,%zmm5,%zmm1
	vpclmulqdq	$0x00,%zmm15,%zmm5,%zmm6

	vpxorq	%zmm12,%zmm7,%zmm7
	vpxorq	%zmm13,%zmm8,%zmm8
	vpxorq	%zmm9,%zmm1,%zmm1
	vpxorq	%zmm10,%zmm6,%zmm6

	vpxorq	%zmm8,%zmm7,%zmm7
	vpsrldq	$8,%zmm7,%zmm12
	vpslldq	$8,%zmm7,%zmm13
	vpxorq	%zmm12,%zmm1,%zmm1
	vpxorq	%zmm13,%zmm6,%zmm6
	vextracti64x4	$1,%zmm1,%ymm12
	vpxorq	%ymm12,%ymm1,%ymm1
	vextracti32x4	$1,%ymm1,%xmm12
	vpxorq	%xmm12,%xmm1,%xmm1
	vextracti64x4	$1,%zmm6,%ymm13
	vpxorq	%ymm13,%ymm6,%ymm6
	vextracti32x4	$1,%ymm6,%xmm13
	vpxorq	%xmm13,%xmm6,%xmm6
	vmovdqa64	POLY2(%rip),%xmm15


	vpclmulqdq	$0x01,%xmm6,%xmm15,%xmm7
	vpslldq	$8,%xmm7,%xmm7
	vpxorq	%xmm7,%xmm6,%xmm7


	vpclmulqdq	$0x00,%xmm7,%xmm15,%xmm8
	vpsrldq	$4,%xmm8,%xmm8
	vpclmulqdq	$0x10,%xmm7,%xmm15,%xmm2
	vpslldq	$4,%xmm2,%xmm2
	vpternlogq	$0x96,%xmm1,%xmm8,%xmm2

	jmp	.L_CALC_AAD_done_eapjjouFbpgixob
.L_AAD_blocks_14_eapjjouFbpgixob:
	subq	$1536,%r12
	kmovq	(%r12),%k1
	vmovdqu8	0(%r10),%zmm11
	vmovdqu8	64(%r10),%zmm3
	vmovdqu8	128(%r10),%zmm4
	vmovdqu8	192(%r10),%ymm5{%k1}{z}
	vpshufb	%zmm16,%zmm11,%zmm11
	vpshufb	%zmm16,%zmm3,%zmm3
	vpshufb	%zmm16,%zmm4,%zmm4
	vpshufb	%ymm16,%ymm5,%ymm5
	vpxorq	%zmm2,%zmm11,%zmm11
	vmovdqu64	32(%r13),%zmm15
	vpclmulqdq	$0x11,%zmm15,%zmm11,%zmm1
	vpclmulqdq	$0x00,%zmm15,%zmm11,%zmm6
	vpclmulqdq	$0x01,%zmm15,%zmm11,%zmm7
	vpclmulqdq	$0x10,%zmm15,%zmm11,%zmm8
	vmovdqu64	96(%r13),%zmm15
	vpclmulqdq	$0x11,%zmm15,%zmm3,%zmm9
	vpclmulqdq	$0x00,%zmm15,%zmm3,%zmm10
	vpclmulqdq	$0x01,%zmm15,%zmm3,%zmm12
	vpclmulqdq	$0x10,%zmm15,%zmm3,%zmm13
	vmovdqu64	160(%r13),%zmm15
	vpclmulqdq	$0x11,%zmm15,%zmm4,%zmm11
	vpclmulqdq	$0x00,%zmm15,%zmm4,%zmm3
	vpternlogq	$0x96,%zmm1,%zmm11,%zmm9
	vpternlogq	$0x96,%zmm6,%zmm3,%zmm10
	vpclmulqdq	$0x01,%zmm15,%zmm4,%zmm11
	vpclmulqdq	$0x10,%zmm15,%zmm4,%zmm3
	vpternlogq	$0x96,%zmm7,%zmm11,%zmm12
	vpternlogq	$0x96,%zmm8,%zmm3,%zmm13
	vmovdqu64	224(%r13),%ymm15
	vpclmulqdq	$0x01,%ymm15,%ymm5,%ymm7
	vpclmulqdq	$0x10,%ymm15,%ymm5,%ymm8
	vpclmulqdq	$0x11,%ymm15,%ymm5,%ymm1
	vpclmulqdq	$0x00,%ymm15,%ymm5,%ymm6

	vpxorq	%zmm12,%zmm7,%zmm7
	vpxorq	%zmm13,%zmm8,%zmm8
	vpxorq	%zmm9,%zmm1,%zmm1
	vpxorq	%zmm10,%zmm6,%zmm6

	vpxorq	%zmm8,%zmm7,%zmm7
	vpsrldq	$8,%zmm7,%zmm12
	vpslldq	$8,%zmm7,%zmm13
	vpxorq	%zmm12,%zmm1,%zmm1
	vpxorq	%zmm13,%zmm6,%zmm6
	vextracti64x4	$1,%zmm1,%ymm12
	vpxorq	%ymm12,%ymm1,%ymm1
	vextracti32x4	$1,%ymm1,%xmm12
	vpxorq	%xmm12,%xmm1,%xmm1
	vextracti64x4	$1,%zmm6,%ymm13
	vpxorq	%ymm13,%ymm6,%ymm6
	vextracti32x4	$1,%ymm6,%xmm13
	vpxorq	%xmm13,%xmm6,%xmm6
	vmovdqa64	POLY2(%rip),%xmm15


	vpclmulqdq	$0x01,%xmm6,%xmm15,%xmm7
	vpslldq	$8,%xmm7,%xmm7
	vpxorq	%xmm7,%xmm6,%xmm7


	vpclmulqdq	$0x00,%xmm7,%xmm15,%xmm8
	vpsrldq	$4,%xmm8,%xmm8
	vpclmulqdq	$0x10,%xmm7,%xmm15,%xmm2
	vpslldq	$4,%xmm2,%xmm2
	vpternlogq	$0x96,%xmm1,%xmm8,%xmm2

	jmp	.L_CALC_AAD_done_eapjjouFbpgixob
.L_AAD_blocks_13_eapjjouFbpgixob:
	subq	$1536,%r12
	kmovq	(%r12),%k1
	vmovdqu8	0(%r10),%zmm11
	vmovdqu8	64(%r10),%zmm3
	vmovdqu8	128(%r10),%zmm4
	vmovdqu8	192(%r10),%xmm5{%k1}{z}
	vpshufb	%zmm16,%zmm11,%zmm11
	vpshufb	%zmm16,%zmm3,%zmm3
	vpshufb	%zmm16,%zmm4,%zmm4
	vpshufb	%xmm16,%xmm5,%xmm5
	vpxorq	%zmm2,%zmm11,%zmm11
	vmovdqu64	48(%r13),%zmm15
	vpclmulqdq	$0x11,%zmm15,%zmm11,%zmm1
	vpclmulqdq	$0x00,%zmm15,%zmm11,%zmm6
	vpclmulqdq	$0x01,%zmm15,%zmm11,%zmm7
	vpclmulqdq	$0x10,%zmm15,%zmm11,%zmm8
	vmovdqu64	112(%r13),%zmm15
	vpclmulqdq	$0x11,%zmm15,%zmm3,%zmm9
	vpclmulqdq	$0x00,%zmm15,%zmm3,%zmm10
	vpclmulqdq	$0x01,%zmm15,%zmm3,%zmm12
	vpclmulqdq	$0x10,%zmm15,%zmm3,%zmm13
	vmovdqu64	176(%r13),%zmm15
	vpclmulqdq	$0x11,%zmm15,%zmm4,%zmm11
	vpclmulqdq	$0x00,%zmm15,%zmm4,%zmm3
	vpternlogq	$0x96,%zmm1,%zmm11,%zmm9
	vpternlogq	$0x96,%zmm6,%zmm3,%zmm10
	vpclmulqdq	$0x01,%zmm15,%zmm4,%zmm11
	vpclmulqdq	$0x10,%zmm15,%zmm4,%zmm3
	vpternlogq	$0x96,%zmm7,%zmm11,%zmm12
	vpternlogq	$0x96,%zmm8,%zmm3,%zmm13
	vmovdqu64	240(%r13),%xmm15
	vpclmulqdq	$0x01,%xmm15,%xmm5,%xmm7
	vpclmulqdq	$0x10,%xmm15,%xmm5,%xmm8
	vpclmulqdq	$0x11,%xmm15,%xmm5,%xmm1
	vpclmulqdq	$0x00,%xmm15,%xmm5,%xmm6

	vpxorq	%zmm12,%zmm7,%zmm7
	vpxorq	%zmm13,%zmm8,%zmm8
	vpxorq	%zmm9,%zmm1,%zmm1
	vpxorq	%zmm10,%zmm6,%zmm6

	vpxorq	%zmm8,%zmm7,%zmm7
	vpsrldq	$8,%zmm7,%zmm12
	vpslldq	$8,%zmm7,%zmm13
	vpxorq	%zmm12,%zmm1,%zmm1
	vpxorq	%zmm13,%zmm6,%zmm6
	vextracti64x4	$1,%zmm1,%ymm12
	vpxorq	%ymm12,%ymm1,%ymm1
	vextracti32x4	$1,%ymm1,%xmm12
	vpxorq	%xmm12,%xmm1,%xmm1
	vextracti64x4	$1,%zmm6,%ymm13
	vpxorq	%ymm13,%ymm6,%ymm6
	vextracti32x4	$1,%ymm6,%xmm13
	vpxorq	%xmm13,%xmm6,%xmm6
	vmovdqa64	POLY2(%rip),%xmm15


	vpclmulqdq	$0x01,%xmm6,%xmm15,%xmm7
	vpslldq	$8,%xmm7,%xmm7
	vpxorq	%xmm7,%xmm6,%xmm7


	vpclmulqdq	$0x00,%xmm7,%xmm15,%xmm8
	vpsrldq	$4,%xmm8,%xmm8
	vpclmulqdq	$0x10,%xmm7,%xmm15,%xmm2
	vpslldq	$4,%xmm2,%xmm2
	vpternlogq	$0x96,%xmm1,%xmm8,%xmm2

	jmp	.L_CALC_AAD_done_eapjjouFbpgixob
.L_AAD_blocks_12_eapjjouFbpgixob:
	subq	$1024,%r12
	kmovq	(%r12),%k1
	vmovdqu8	0(%r10),%zmm11
	vmovdqu8	64(%r10),%zmm3
	vmovdqu8	128(%r10),%zmm4{%k1}{z}
	vpshufb	%zmm16,%zmm11,%zmm11
	vpshufb	%zmm16,%zmm3,%zmm3
	vpshufb	%zmm16,%zmm4,%zmm4
	vpxorq	%zmm2,%zmm11,%zmm11
	vmovdqu64	64(%r13),%zmm15
	vpclmulqdq	$0x11,%zmm15,%zmm11,%zmm1
	vpclmulqdq	$0x00,%zmm15,%zmm11,%zmm6
	vpclmulqdq	$0x01,%zmm15,%zmm11,%zmm7
	vpclmulqdq	$0x10,%zmm15,%zmm11,%zmm8
	vmovdqu64	128(%r13),%zmm15
	vpclmulqdq	$0x11,%zmm15,%zmm3,%zmm9
	vpclmulqdq	$0x00,%zmm15,%zmm3,%zmm10
	vpclmulqdq	$0x01,%zmm15,%zmm3,%zmm12
	vpclmulqdq	$0x10,%zmm15,%zmm3,%zmm13
	vmovdqu64	192(%r13),%zmm15
	vpclmulqdq	$0x11,%zmm15,%zmm4,%zmm11
	vpclmulqdq	$0x00,%zmm15,%zmm4,%zmm3
	vpternlogq	$0x96,%zmm1,%zmm11,%zmm9
	vpternlogq	$0x96,%zmm6,%zmm3,%zmm10
	vpclmulqdq	$0x01,%zmm15,%zmm4,%zmm11
	vpclmulqdq	$0x10,%zmm15,%zmm4,%zmm3
	vpternlogq	$0x96,%zmm7,%zmm11,%zmm12
	vpternlogq	$0x96,%zmm8,%zmm3,%zmm13

	vpxorq	%zmm13,%zmm12,%zmm12
	vpsrldq	$8,%zmm12,%zmm7
	vpslldq	$8,%zmm12,%zmm8
	vpxorq	%zmm7,%zmm9,%zmm1
	vpxorq	%zmm8,%zmm10,%zmm6
	vextracti64x4	$1,%zmm1,%ymm12
	vpxorq	%ymm12,%ymm1,%ymm1
	vextracti32x4	$1,%ymm1,%xmm12
	vpxorq	%xmm12,%xmm1,%xmm1
	vextracti64x4	$1,%zmm6,%ymm13
	vpxorq	%ymm13,%ymm6,%ymm6
	vextracti32x4	$1,%ymm6,%xmm13
	vpxorq	%xmm13,%xmm6,%xmm6
	vmovdqa64	POLY2(%rip),%xmm15


	vpclmulqdq	$0x01,%xmm6,%xmm15,%xmm7
	vpslldq	$8,%xmm7,%xmm7
	vpxorq	%xmm7,%xmm6,%xmm7


	vpclmulqdq	$0x00,%xmm7,%xmm15,%xmm8
	vpsrldq	$4,%xmm8,%xmm8
	vpclmulqdq	$0x10,%xmm7,%xmm15,%xmm2
	vpslldq	$4,%xmm2,%xmm2
	vpternlogq	$0x96,%xmm1,%xmm8,%xmm2

	jmp	.L_CALC_AAD_done_eapjjouFbpgixob
.L_AAD_blocks_11_eapjjouFbpgixob:
	subq	$1024,%r12
	kmovq	(%r12),%k1
	vmovdqu8	0(%r10),%zmm11
	vmovdqu8	64(%r10),%zmm3
	vmovdqu8	128(%r10),%zmm4{%k1}{z}
	vpshufb	%zmm16,%zmm11,%zmm11
	vpshufb	%zmm16,%zmm3,%zmm3
	vpshufb	%zmm16,%zmm4,%zmm4
	vpxorq	%zmm2,%zmm11,%zmm11
	vmovdqu64	80(%r13),%zmm15
	vpclmulqdq	$0x11,%zmm15,%zmm11,%zmm1
	vpclmulqdq	$0x00,%zmm15,%zmm11,%zmm6
	vpclmulqdq	$0x01,%zmm15,%zmm11,%zmm7
	vpclmulqdq	$0x10,%zmm15,%zmm11,%zmm8
	vmovdqu64	144(%r13),%zmm15
	vpclmulqdq	$0x11,%zmm15,%zmm3,%zmm9
	vpclmulqdq	$0x00,%zmm15,%zmm3,%zmm10
	vpclmulqdq	$0x01,%zmm15,%zmm3,%zmm12
	vpclmulqdq	$0x10,%zmm15,%zmm3,%zmm13
	vpxorq	%zmm9,%zmm1,%zmm9
	vpxorq	%zmm10,%zmm6,%zmm10
	vpxorq	%zmm12,%zmm7,%zmm12
	vpxorq	%zmm13,%zmm8,%zmm13
	vmovdqu64	208(%r13),%ymm15
	vinserti64x2	$2,240(%r13),%zmm15,%zmm15
	vpclmulqdq	$0x01,%zmm15,%zmm4,%zmm7
	vpclmulqdq	$0x10,%zmm15,%zmm4,%zmm8
	vpclmulqdq	$0x11,%zmm15,%zmm4,%zmm1
	vpclmulqdq	$0x00,%zmm15,%zmm4,%zmm6

	vpxorq	%zmm12,%zmm7,%zmm7
	vpxorq	%zmm13,%zmm8,%zmm8
	vpxorq	%zmm9,%zmm1,%zmm1
	vpxorq	%zmm10,%zmm6,%zmm6

	vpxorq	%zmm8,%zmm7,%zmm7
	vpsrldq	$8,%zmm7,%zmm12
	vpslldq	$8,%zmm7,%zmm13
	vpxorq	%zmm12,%zmm1,%zmm1
	vpxorq	%zmm13,%zmm6,%zmm6
	vextracti64x4	$1,%zmm1,%ymm12
	vpxorq	%ymm12,%ymm1,%ymm1
	vextracti32x4	$1,%ymm1,%xmm12
	vpxorq	%xmm12,%xmm1,%xmm1
	vextracti64x4	$1,%zmm6,%ymm13
	vpxorq	%ymm13,%ymm6,%ymm6
	vextracti32x4	$1,%ymm6,%xmm13
	vpxorq	%xmm13,%xmm6,%xmm6
	vmovdqa64	POLY2(%rip),%xmm15


	vpclmulqdq	$0x01,%xmm6,%xmm15,%xmm7
	vpslldq	$8,%xmm7,%xmm7
	vpxorq	%xmm7,%xmm6,%xmm7


	vpclmulqdq	$0x00,%xmm7,%xmm15,%xmm8
	vpsrldq	$4,%xmm8,%xmm8
	vpclmulqdq	$0x10,%xmm7,%xmm15,%xmm2
	vpslldq	$4,%xmm2,%xmm2
	vpternlogq	$0x96,%xmm1,%xmm8,%xmm2

	jmp	.L_CALC_AAD_done_eapjjouFbpgixob
.L_AAD_blocks_10_eapjjouFbpgixob:
	subq	$1024,%r12
	kmovq	(%r12),%k1
	vmovdqu8	0(%r10),%zmm11
	vmovdqu8	64(%r10),%zmm3
	vmovdqu8	128(%r10),%ymm4{%k1}{z}
	vpshufb	%zmm16,%zmm11,%zmm11
	vpshufb	%zmm16,%zmm3,%zmm3
	vpshufb	%ymm16,%ymm4,%ymm4
	vpxorq	%zmm2,%zmm11,%zmm11
	vmovdqu64	96(%r13),%zmm15
	vpclmulqdq	$0x11,%zmm15,%zmm11,%zmm1
	vpclmulqdq	$0x00,%zmm15,%zmm11,%zmm6
	vpclmulqdq	$0x01,%zmm15,%zmm11,%zmm7
	vpclmulqdq	$0x10,%zmm15,%zmm11,%zmm8
	vmovdqu64	160(%r13),%zmm15
	vpclmulqdq	$0x11,%zmm15,%zmm3,%zmm9
	vpclmulqdq	$0x00,%zmm15,%zmm3,%zmm10
	vpclmulqdq	$0x01,%zmm15,%zmm3,%zmm12
	vpclmulqdq	$0x10,%zmm15,%zmm3,%zmm13
	vpxorq	%zmm9,%zmm1,%zmm9
	vpxorq	%zmm10,%zmm6,%zmm10
	vpxorq	%zmm12,%zmm7,%zmm12
	vpxorq	%zmm13,%zmm8,%zmm13
	vmovdqu64	224(%r13),%ymm15
	vpclmulqdq	$0x01,%ymm15,%ymm4,%ymm7
	vpclmulqdq	$0x10,%ymm15,%ymm4,%ymm8
	vpclmulqdq	$0x11,%ymm15,%ymm4,%ymm1
	vpclmulqdq	$0x00,%ymm15,%ymm4,%ymm6

	vpxorq	%zmm12,%zmm7,%zmm7
	vpxorq	%zmm13,%zmm8,%zmm8
	vpxorq	%zmm9,%zmm1,%zmm1
	vpxorq	%zmm10,%zmm6,%zmm6

	vpxorq	%zmm8,%zmm7,%zmm7
	vpsrldq	$8,%zmm7,%zmm12
	vpslldq	$8,%zmm7,%zmm13
	vpxorq	%zmm12,%zmm1,%zmm1
	vpxorq	%zmm13,%zmm6,%zmm6
	vextracti64x4	$1,%zmm1,%ymm12
	vpxorq	%ymm12,%ymm1,%ymm1
	vextracti32x4	$1,%ymm1,%xmm12
	vpxorq	%xmm12,%xmm1,%xmm1
	vextracti64x4	$1,%zmm6,%ymm13
	vpxorq	%ymm13,%ymm6,%ymm6
	vextracti32x4	$1,%ymm6,%xmm13
	vpxorq	%xmm13,%xmm6,%xmm6
	vmovdqa64	POLY2(%rip),%xmm15


	vpclmulqdq	$0x01,%xmm6,%xmm15,%xmm7
	vpslldq	$8,%xmm7,%xmm7
	vpxorq	%xmm7,%xmm6,%xmm7


	vpclmulqdq	$0x00,%xmm7,%xmm15,%xmm8
	vpsrldq	$4,%xmm8,%xmm8
	vpclmulqdq	$0x10,%xmm7,%xmm15,%xmm2
	vpslldq	$4,%xmm2,%xmm2
	vpternlogq	$0x96,%xmm1,%xmm8,%xmm2

	jmp	.L_CALC_AAD_done_eapjjouFbpgixob
.L_AAD_blocks_9_eapjjouFbpgixob:
	subq	$1024,%r12
	kmovq	(%r12),%k1
	vmovdqu8	0(%r10),%zmm11
	vmovdqu8	64(%r10),%zmm3
	vmovdqu8	128(%r10),%xmm4{%k1}{z}
	vpshufb	%zmm16,%zmm11,%zmm11
	vpshufb	%zmm16,%zmm3,%zmm3
	vpshufb	%xmm16,%xmm4,%xmm4
	vpxorq	%zmm2,%zmm11,%zmm11
	vmovdqu64	112(%r13),%zmm15
	vpclmulqdq	$0x11,%zmm15,%zmm11,%zmm1
	vpclmulqdq	$0x00,%zmm15,%zmm11,%zmm6
	vpclmulqdq	$0x01,%zmm15,%zmm11,%zmm7
	vpclmulqdq	$0x10,%zmm15,%zmm11,%zmm8
	vmovdqu64	176(%r13),%zmm15
	vpclmulqdq	$0x11,%zmm15,%zmm3,%zmm9
	vpclmulqdq	$0x00,%zmm15,%zmm3,%zmm10
	vpclmulqdq	$0x01,%zmm15,%zmm3,%zmm12
	vpclmulqdq	$0x10,%zmm15,%zmm3,%zmm13
	vpxorq	%zmm9,%zmm1,%zmm9
	vpxorq	%zmm10,%zmm6,%zmm10
	vpxorq	%zmm12,%zmm7,%zmm12
	vpxorq	%zmm13,%zmm8,%zmm13
	vmovdqu64	240(%r13),%xmm15
	vpclmulqdq	$0x01,%xmm15,%xmm4,%xmm7
	vpclmulqdq	$0x10,%xmm15,%xmm4,%xmm8
	vpclmulqdq	$0x11,%xmm15,%xmm4,%xmm1
	vpclmulqdq	$0x00,%xmm15,%xmm4,%xmm6

	vpxorq	%zmm12,%zmm7,%zmm7
	vpxorq	%zmm13,%zmm8,%zmm8
	vpxorq	%zmm9,%zmm1,%zmm1
	vpxorq	%zmm10,%zmm6,%zmm6

	vpxorq	%zmm8,%zmm7,%zmm7
	vpsrldq	$8,%zmm7,%zmm12
	vpslldq	$8,%zmm7,%zmm13
	vpxorq	%zmm12,%zmm1,%zmm1
	vpxorq	%zmm13,%zmm6,%zmm6
	vextracti64x4	$1,%zmm1,%ymm12
	vpxorq	%ymm12,%ymm1,%ymm1
	vextracti32x4	$1,%ymm1,%xmm12
	vpxorq	%xmm12,%xmm1,%xmm1
	vextracti64x4	$1,%zmm6,%ymm13
	vpxorq	%ymm13,%ymm6,%ymm6
	vextracti32x4	$1,%ymm6,%xmm13
	vpxorq	%xmm13,%xmm6,%xmm6
	vmovdqa64	POLY2(%rip),%xmm15


	vpclmulqdq	$0x01,%xmm6,%xmm15,%xmm7
	vpslldq	$8,%xmm7,%xmm7
	vpxorq	%xmm7,%xmm6,%xmm7


	vpclmulqdq	$0x00,%xmm7,%xmm15,%xmm8
	vpsrldq	$4,%xmm8,%xmm8
	vpclmulqdq	$0x10,%xmm7,%xmm15,%xmm2
	vpslldq	$4,%xmm2,%xmm2
	vpternlogq	$0x96,%xmm1,%xmm8,%xmm2

	jmp	.L_CALC_AAD_done_eapjjouFbpgixob
.L_AAD_blocks_8_eapjjouFbpgixob:
	subq	$512,%r12
	kmovq	(%r12),%k1
	vmovdqu8	0(%r10),%zmm11
	vmovdqu8	64(%r10),%zmm3{%k1}{z}
	vpshufb	%zmm16,%zmm11,%zmm11
	vpshufb	%zmm16,%zmm3,%zmm3
	vpxorq	%zmm2,%zmm11,%zmm11
	vmovdqu64	128(%r13),%zmm15
	vpclmulqdq	$0x11,%zmm15,%zmm11,%zmm1
	vpclmulqdq	$0x00,%zmm15,%zmm11,%zmm6
	vpclmulqdq	$0x01,%zmm15,%zmm11,%zmm7
	vpclmulqdq	$0x10,%zmm15,%zmm11,%zmm8
	vmovdqu64	192(%r13),%zmm15
	vpclmulqdq	$0x11,%zmm15,%zmm3,%zmm9
	vpclmulqdq	$0x00,%zmm15,%zmm3,%zmm10
	vpclmulqdq	$0x01,%zmm15,%zmm3,%zmm12
	vpclmulqdq	$0x10,%zmm15,%zmm3,%zmm13
	vpxorq	%zmm9,%zmm1,%zmm9
	vpxorq	%zmm10,%zmm6,%zmm10
	vpxorq	%zmm12,%zmm7,%zmm12
	vpxorq	%zmm13,%zmm8,%zmm13

	vpxorq	%zmm13,%zmm12,%zmm12
	vpsrldq	$8,%zmm12,%zmm7
	vpslldq	$8,%zmm12,%zmm8
	vpxorq	%zmm7,%zmm9,%zmm1
	vpxorq	%zmm8,%zmm10,%zmm6
	vextracti64x4	$1,%zmm1,%ymm12
	vpxorq	%ymm12,%ymm1,%ymm1
	vextracti32x4	$1,%ymm1,%xmm12
	vpxorq	%xmm12,%xmm1,%xmm1
	vextracti64x4	$1,%zmm6,%ymm13
	vpxorq	%ymm13,%ymm6,%ymm6
	vextracti32x4	$1,%ymm6,%xmm13
	vpxorq	%xmm13,%xmm6,%xmm6
	vmovdqa64	POLY2(%rip),%xmm15


	vpclmulqdq	$0x01,%xmm6,%xmm15,%xmm7
	vpslldq	$8,%xmm7,%xmm7
	vpxorq	%xmm7,%xmm6,%xmm7


	vpclmulqdq	$0x00,%xmm7,%xmm15,%xmm8
	vpsrldq	$4,%xmm8,%xmm8
	vpclmulqdq	$0x10,%xmm7,%xmm15,%xmm2
	vpslldq	$4,%xmm2,%xmm2
	vpternlogq	$0x96,%xmm1,%xmm8,%xmm2

	jmp	.L_CALC_AAD_done_eapjjouFbpgixob
.L_AAD_blocks_7_eapjjouFbpgixob:
	subq	$512,%r12
	kmovq	(%r12),%k1
	vmovdqu8	0(%r10),%zmm11
	vmovdqu8	64(%r10),%zmm3{%k1}{z}
	vpshufb	%zmm16,%zmm11,%zmm11
	vpshufb	%zmm16,%zmm3,%zmm3
	vpxorq	%zmm2,%zmm11,%zmm11
	vmovdqu64	144(%r13),%zmm15
	vpclmulqdq	$0x11,%zmm15,%zmm11,%zmm9
	vpclmulqdq	$0x00,%zmm15,%zmm11,%zmm10
	vpclmulqdq	$0x01,%zmm15,%zmm11,%zmm12
	vpclmulqdq	$0x10,%zmm15,%zmm11,%zmm13
	vmovdqu64	208(%r13),%ymm15
	vinserti64x2	$2,240(%r13),%zmm15,%zmm15
	vpclmulqdq	$0x01,%zmm15,%zmm3,%zmm7
	vpclmulqdq	$0x10,%zmm15,%zmm3,%zmm8
	vpclmulqdq	$0x11,%zmm15,%zmm3,%zmm1
	vpclmulqdq	$0x00,%zmm15,%zmm3,%zmm6

	vpxorq	%zmm12,%zmm7,%zmm7
	vpxorq	%zmm13,%zmm8,%zmm8
	vpxorq	%zmm9,%zmm1,%zmm1
	vpxorq	%zmm10,%zmm6,%zmm6

	vpxorq	%zmm8,%zmm7,%zmm7
	vpsrldq	$8,%zmm7,%zmm12
	vpslldq	$8,%zmm7,%zmm13
	vpxorq	%zmm12,%zmm1,%zmm1
	vpxorq	%zmm13,%zmm6,%zmm6
	vextracti64x4	$1,%zmm1,%ymm12
	vpxorq	%ymm12,%ymm1,%ymm1
	vextracti32x4	$1,%ymm1,%xmm12
	vpxorq	%xmm12,%xmm1,%xmm1
	vextracti64x4	$1,%zmm6,%ymm13
	vpxorq	%ymm13,%ymm6,%ymm6
	vextracti32x4	$1,%ymm6,%xmm13
	vpxorq	%xmm13,%xmm6,%xmm6
	vmovdqa64	POLY2(%rip),%xmm15


	vpclmulqdq	$0x01,%xmm6,%xmm15,%xmm7
	vpslldq	$8,%xmm7,%xmm7
	vpxorq	%xmm7,%xmm6,%xmm7


	vpclmulqdq	$0x00,%xmm7,%xmm15,%xmm8
	vpsrldq	$4,%xmm8,%xmm8
	vpclmulqdq	$0x10,%xmm7,%xmm15,%xmm2
	vpslldq	$4,%xmm2,%xmm2
	vpternlogq	$0x96,%xmm1,%xmm8,%xmm2

	jmp	.L_CALC_AAD_done_eapjjouFbpgixob
.L_AAD_blocks_6_eapjjouFbpgixob:
	subq	$512,%r12
	kmovq	(%r12),%k1
	vmovdqu8	0(%r10),%zmm11
	vmovdqu8	64(%r10),%ymm3{%k1}{z}
	vpshufb	%zmm16,%zmm11,%zmm11
	vpshufb	%ymm16,%ymm3,%ymm3
	vpxorq	%zmm2,%zmm11,%zmm11
	vmovdqu64	160(%r13),%zmm15
	vpclmulqdq	$0x11,%zmm15,%zmm11,%zmm9
	vpclmulqdq	$0x00,%zmm15,%zmm11,%zmm10
	vpclmulqdq	$0x01,%zmm15,%zmm11,%zmm12
	vpclmulqdq	$0x10,%zmm15,%zmm11,%zmm13
	vmovdqu64	224(%r13),%ymm15
	vpclmulqdq	$0x01,%ymm15,%ymm3,%ymm7
	vpclmulqdq	$0x10,%ymm15,%ymm3,%ymm8
	vpclmulqdq	$0x11,%ymm15,%ymm3,%ymm1
	vpclmulqdq	$0x00,%ymm15,%ymm3,%ymm6

	vpxorq	%zmm12,%zmm7,%zmm7
	vpxorq	%zmm13,%zmm8,%zmm8
	vpxorq	%zmm9,%zmm1,%zmm1
	vpxorq	%zmm10,%zmm6,%zmm6

	vpxorq	%zmm8,%zmm7,%zmm7
	vpsrldq	$8,%zmm7,%zmm12
	vpslldq	$8,%zmm7,%zmm13
	vpxorq	%zmm12,%zmm1,%zmm1
	vpxorq	%zmm13,%zmm6,%zmm6
	vextracti64x4	$1,%zmm1,%ymm12
	vpxorq	%ymm12,%ymm1,%ymm1
	vextracti32x4	$1,%ymm1,%xmm12
	vpxorq	%xmm12,%xmm1,%xmm1
	vextracti64x4	$1,%zmm6,%ymm13
	vpxorq	%ymm13,%ymm6,%ymm6
	vextracti32x4	$1,%ymm6,%xmm13
	vpxorq	%xmm13,%xmm6,%xmm6
	vmovdqa64	POLY2(%rip),%xmm15


	vpclmulqdq	$0x01,%xmm6,%xmm15,%xmm7
	vpslldq	$8,%xmm7,%xmm7
	vpxorq	%xmm7,%xmm6,%xmm7


	vpclmulqdq	$0x00,%xmm7,%xmm15,%xmm8
	vpsrldq	$4,%xmm8,%xmm8
	vpclmulqdq	$0x10,%xmm7,%xmm15,%xmm2
	vpslldq	$4,%xmm2,%xmm2
	vpternlogq	$0x96,%xmm1,%xmm8,%xmm2

	jmp	.L_CALC_AAD_done_eapjjouFbpgixob
.L_AAD_blocks_5_eapjjouFbpgixob:
	subq	$512,%r12
	kmovq	(%r12),%k1
	vmovdqu8	0(%r10),%zmm11
	vmovdqu8	64(%r10),%xmm3{%k1}{z}
	vpshufb	%zmm16,%zmm11,%zmm11
	vpshufb	%xmm16,%xmm3,%xmm3
	vpxorq	%zmm2,%zmm11,%zmm11
	vmovdqu64	176(%r13),%zmm15
	vpclmulqdq	$0x11,%zmm15,%zmm11,%zmm9
	vpclmulqdq	$0x00,%zmm15,%zmm11,%zmm10
	vpclmulqdq	$0x01,%zmm15,%zmm11,%zmm12
	vpclmulqdq	$0x10,%zmm15,%zmm11,%zmm13
	vmovdqu64	240(%r13),%xmm15
	vpclmulqdq	$0x01,%xmm15,%xmm3,%xmm7
	vpclmulqdq	$0x10,%xmm15,%xmm3,%xmm8
	vpclmulqdq	$0x11,%xmm15,%xmm3,%xmm1
	vpclmulqdq	$0x00,%xmm15,%xmm3,%xmm6

	vpxorq	%zmm12,%zmm7,%zmm7
	vpxorq	%zmm13,%zmm8,%zmm8
	vpxorq	%zmm9,%zmm1,%zmm1
	vpxorq	%zmm10,%zmm6,%zmm6

	vpxorq	%zmm8,%zmm7,%zmm7
	vpsrldq	$8,%zmm7,%zmm12
	vpslldq	$8,%zmm7,%zmm13
	vpxorq	%zmm12,%zmm1,%zmm1
	vpxorq	%zmm13,%zmm6,%zmm6
	vextracti64x4	$1,%zmm1,%ymm12
	vpxorq	%ymm12,%ymm1,%ymm1
	vextracti32x4	$1,%ymm1,%xmm12
	vpxorq	%xmm12,%xmm1,%xmm1
	vextracti64x4	$1,%zmm6,%ymm13
	vpxorq	%ymm13,%ymm6,%ymm6
	vextracti32x4	$1,%ymm6,%xmm13
	vpxorq	%xmm13,%xmm6,%xmm6
	vmovdqa64	POLY2(%rip),%xmm15


	vpclmulqdq	$0x01,%xmm6,%xmm15,%xmm7
	vpslldq	$8,%xmm7,%xmm7
	vpxorq	%xmm7,%xmm6,%xmm7


	vpclmulqdq	$0x00,%xmm7,%xmm15,%xmm8
	vpsrldq	$4,%xmm8,%xmm8
	vpclmulqdq	$0x10,%xmm7,%xmm15,%xmm2
	vpslldq	$4,%xmm2,%xmm2
	vpternlogq	$0x96,%xmm1,%xmm8,%xmm2

	jmp	.L_CALC_AAD_done_eapjjouFbpgixob
.L_AAD_blocks_4_eapjjouFbpgixob:
	kmovq	(%r12),%k1
	vmovdqu8	0(%r10),%zmm11{%k1}{z}
	vpshufb	%zmm16,%zmm11,%zmm11
	vpxorq	%zmm2,%zmm11,%zmm11
	vmovdqu64	192(%r13),%zmm15
	vpclmulqdq	$0x11,%zmm15,%zmm11,%zmm9
	vpclmulqdq	$0x00,%zmm15,%zmm11,%zmm10
	vpclmulqdq	$0x01,%zmm15,%zmm11,%zmm12
	vpclmulqdq	$0x10,%zmm15,%zmm11,%zmm13

	vpxorq	%zmm13,%zmm12,%zmm12
	vpsrldq	$8,%zmm12,%zmm7
	vpslldq	$8,%zmm12,%zmm8
	vpxorq	%zmm7,%zmm9,%zmm1
	vpxorq	%zmm8,%zmm10,%zmm6
	vextracti64x4	$1,%zmm1,%ymm12
	vpxorq	%ymm12,%ymm1,%ymm1
	vextracti32x4	$1,%ymm1,%xmm12
	vpxorq	%xmm12,%xmm1,%xmm1
	vextracti64x4	$1,%zmm6,%ymm13
	vpxorq	%ymm13,%ymm6,%ymm6
	vextracti32x4	$1,%ymm6,%xmm13
	vpxorq	%xmm13,%xmm6,%xmm6
	vmovdqa64	POLY2(%rip),%xmm15


	vpclmulqdq	$0x01,%xmm6,%xmm15,%xmm7
	vpslldq	$8,%xmm7,%xmm7
	vpxorq	%xmm7,%xmm6,%xmm7


	vpclmulqdq	$0x00,%xmm7,%xmm15,%xmm8
	vpsrldq	$4,%xmm8,%xmm8
	vpclmulqdq	$0x10,%xmm7,%xmm15,%xmm2
	vpslldq	$4,%xmm2,%xmm2
	vpternlogq	$0x96,%xmm1,%xmm8,%xmm2

	jmp	.L_CALC_AAD_done_eapjjouFbpgixob
.L_AAD_blocks_3_eapjjouFbpgixob:
	kmovq	(%r12),%k1
	vmovdqu8	0(%r10),%zmm11{%k1}{z}
	vpshufb	%zmm16,%zmm11,%zmm11
	vpxorq	%zmm2,%zmm11,%zmm11
	vmovdqu64	208(%r13),%ymm15
	vinserti64x2	$2,240(%r13),%zmm15,%zmm15
	vpclmulqdq	$0x01,%zmm15,%zmm11,%zmm7
	vpclmulqdq	$0x10,%zmm15,%zmm11,%zmm8
	vpclmulqdq	$0x11,%zmm15,%zmm11,%zmm1
	vpclmulqdq	$0x00,%zmm15,%zmm11,%zmm6

	vpxorq	%zmm8,%zmm7,%zmm7
	vpsrldq	$8,%zmm7,%zmm12
	vpslldq	$8,%zmm7,%zmm13
	vpxorq	%zmm12,%zmm1,%zmm1
	vpxorq	%zmm13,%zmm6,%zmm6
	vextracti64x4	$1,%zmm1,%ymm12
	vpxorq	%ymm12,%ymm1,%ymm1
	vextracti32x4	$1,%ymm1,%xmm12
	vpxorq	%xmm12,%xmm1,%xmm1
	vextracti64x4	$1,%zmm6,%ymm13
	vpxorq	%ymm13,%ymm6,%ymm6
	vextracti32x4	$1,%ymm6,%xmm13
	vpxorq	%xmm13,%xmm6,%xmm6
	vmovdqa64	POLY2(%rip),%xmm15


	vpclmulqdq	$0x01,%xmm6,%xmm15,%xmm7
	vpslldq	$8,%xmm7,%xmm7
	vpxorq	%xmm7,%xmm6,%xmm7


	vpclmulqdq	$0x00,%xmm7,%xmm15,%xmm8
	vpsrldq	$4,%xmm8,%xmm8
	vpclmulqdq	$0x10,%xmm7,%xmm15,%xmm2
	vpslldq	$4,%xmm2,%xmm2
	vpternlogq	$0x96,%xmm1,%xmm8,%xmm2

	jmp	.L_CALC_AAD_done_eapjjouFbpgixob
.L_AAD_blocks_2_eapjjouFbpgixob:
	kmovq	(%r12),%k1
	vmovdqu8	0(%r10),%ymm11{%k1}{z}
	vpshufb	%ymm16,%ymm11,%ymm11
	vpxorq	%zmm2,%zmm11,%zmm11
	vmovdqu64	224(%r13),%ymm15
	vpclmulqdq	$0x01,%ymm15,%ymm11,%ymm7
	vpclmulqdq	$0x10,%ymm15,%ymm11,%ymm8
	vpclmulqdq	$0x11,%ymm15,%ymm11,%ymm1
	vpclmulqdq	$0x00,%ymm15,%ymm11,%ymm6

	vpxorq	%zmm8,%zmm7,%zmm7
	vpsrldq	$8,%zmm7,%zmm12
	vpslldq	$8,%zmm7,%zmm13
	vpxorq	%zmm12,%zmm1,%zmm1
	vpxorq	%zmm13,%zmm6,%zmm6
	vextracti64x4	$1,%zmm1,%ymm12
	vpxorq	%ymm12,%ymm1,%ymm1
	vextracti32x4	$1,%ymm1,%xmm12
	vpxorq	%xmm12,%xmm1,%xmm1
	vextracti64x4	$1,%zmm6,%ymm13
	vpxorq	%ymm13,%ymm6,%ymm6
	vextracti32x4	$1,%ymm6,%xmm13
	vpxorq	%xmm13,%xmm6,%xmm6
	vmovdqa64	POLY2(%rip),%xmm15


	vpclmulqdq	$0x01,%xmm6,%xmm15,%xmm7
	vpslldq	$8,%xmm7,%xmm7
	vpxorq	%xmm7,%xmm6,%xmm7


	vpclmulqdq	$0x00,%xmm7,%xmm15,%xmm8
	vpsrldq	$4,%xmm8,%xmm8
	vpclmulqdq	$0x10,%xmm7,%xmm15,%xmm2
	vpslldq	$4,%xmm2,%xmm2
	vpternlogq	$0x96,%xmm1,%xmm8,%xmm2

	jmp	.L_CALC_AAD_done_eapjjouFbpgixob
.L_AAD_blocks_1_eapjjouFbpgixob:
	kmovq	(%r12),%k1
	vmovdqu8	0(%r10),%xmm11{%k1}{z}
	vpshufb	%xmm16,%xmm11,%xmm11
	vpxorq	%zmm2,%zmm11,%zmm11
	vmovdqu64	240(%r13),%xmm15
	vpclmulqdq	$0x01,%xmm15,%xmm11,%xmm7
	vpclmulqdq	$0x10,%xmm15,%xmm11,%xmm8
	vpclmulqdq	$0x11,%xmm15,%xmm11,%xmm1
	vpclmulqdq	$0x00,%xmm15,%xmm11,%xmm6

	vpxorq	%zmm8,%zmm7,%zmm7
	vpsrldq	$8,%zmm7,%zmm12
	vpslldq	$8,%zmm7,%zmm13
	vpxorq	%zmm12,%zmm1,%zmm1
	vpxorq	%zmm13,%zmm6,%zmm6
	vextracti64x4	$1,%zmm1,%ymm12
	vpxorq	%ymm12,%ymm1,%ymm1
	vextracti32x4	$1,%ymm1,%xmm12
	vpxorq	%xmm12,%xmm1,%xmm1
	vextracti64x4	$1,%zmm6,%ymm13
	vpxorq	%ymm13,%ymm6,%ymm6
	vextracti32x4	$1,%ymm6,%xmm13
	vpxorq	%xmm13,%xmm6,%xmm6
	vmovdqa64	POLY2(%rip),%xmm15


	vpclmulqdq	$0x01,%xmm6,%xmm15,%xmm7
	vpslldq	$8,%xmm7,%xmm7
	vpxorq	%xmm7,%xmm6,%xmm7


	vpclmulqdq	$0x00,%xmm7,%xmm15,%xmm8
	vpsrldq	$4,%xmm8,%xmm8
	vpclmulqdq	$0x10,%xmm7,%xmm15,%xmm2
	vpslldq	$4,%xmm2,%xmm2
	vpternlogq	$0x96,%xmm1,%xmm8,%xmm2

.L_CALC_AAD_done_eapjjouFbpgixob:
	movq	%rcx,%r10
	shlq	$3,%r10
	vmovq	%r10,%xmm3


	vpxorq	%xmm2,%xmm3,%xmm2

	vmovdqu64	240(%r13),%xmm1

	vpclmulqdq	$0x11,%xmm1,%xmm2,%xmm11
	vpclmulqdq	$0x00,%xmm1,%xmm2,%xmm3
	vpclmulqdq	$0x01,%xmm1,%xmm2,%xmm4
	vpclmulqdq	$0x10,%xmm1,%xmm2,%xmm2
	vpxorq	%xmm4,%xmm2,%xmm2

	vpsrldq	$8,%xmm2,%xmm4
	vpslldq	$8,%xmm2,%xmm2
	vpxorq	%xmm4,%xmm11,%xmm11
	vpxorq	%xmm3,%xmm2,%xmm2



	vmovdqu64	POLY2(%rip),%xmm4

	vpclmulqdq	$0x01,%xmm2,%xmm4,%xmm3
	vpslldq	$8,%xmm3,%xmm3
	vpxorq	%xmm3,%xmm2,%xmm2



	vpclmulqdq	$0x00,%xmm2,%xmm4,%xmm3
	vpsrldq	$4,%xmm3,%xmm3
	vpclmulqdq	$0x10,%xmm2,%xmm4,%xmm2
	vpslldq	$4,%xmm2,%xmm2

	vpternlogq	$0x96,%xmm3,%xmm11,%xmm2

	vpshufb	SHUF_MASK(%rip),%xmm2,%xmm2
	jmp	skip_iv_len_12_init_IV
iv_len_12_init_IV:

	vmovdqu8	ONEf(%rip),%xmm2
	movq	%rdx,%r11
	movl	$0x0000000000000fff,%r10d
	kmovq	%r10,%k1
	vmovdqu8	(%r11),%xmm2{%k1}
skip_iv_len_12_init_IV:
	vmovdqu	%xmm2,%xmm1


	movl	240(%rdi),%r10d
	cmpl	$9,%r10d
	je	.Laes_128_gBarGmeeDEpdiCo
	cmpl	$11,%r10d
	je	.Laes_192_gBarGmeeDEpdiCo
	cmpl	$13,%r10d
	je	.Laes_256_gBarGmeeDEpdiCo
	jmp	.Lexit_aes_gBarGmeeDEpdiCo
.align	32
.Laes_128_gBarGmeeDEpdiCo:
	vpxorq	0(%rdi),%xmm1,%xmm1

	vaesenc	16(%rdi),%xmm1,%xmm1

	vaesenc	32(%rdi),%xmm1,%xmm1

	vaesenc	48(%rdi),%xmm1,%xmm1

	vaesenc	64(%rdi),%xmm1,%xmm1

	vaesenc	80(%rdi),%xmm1,%xmm1

	vaesenc	96(%rdi),%xmm1,%xmm1

	vaesenc	112(%rdi),%xmm1,%xmm1

	vaesenc	128(%rdi),%xmm1,%xmm1

	vaesenc	144(%rdi),%xmm1,%xmm1

	vaesenclast	160(%rdi),%xmm1,%xmm1
	jmp	.Lexit_aes_gBarGmeeDEpdiCo
.align	32
.Laes_192_gBarGmeeDEpdiCo:
	vpxorq	0(%rdi),%xmm1,%xmm1

	vaesenc	16(%rdi),%xmm1,%xmm1

	vaesenc	32(%rdi),%xmm1,%xmm1

	vaesenc	48(%rdi),%xmm1,%xmm1

	vaesenc	64(%rdi),%xmm1,%xmm1

	vaesenc	80(%rdi),%xmm1,%xmm1

	vaesenc	96(%rdi),%xmm1,%xmm1

	vaesenc	112(%rdi),%xmm1,%xmm1

	vaesenc	128(%rdi),%xmm1,%xmm1

	vaesenc	144(%rdi),%xmm1,%xmm1

	vaesenc	160(%rdi),%xmm1,%xmm1

	vaesenc	176(%rdi),%xmm1,%xmm1

	vaesenclast	192(%rdi),%xmm1,%xmm1
	jmp	.Lexit_aes_gBarGmeeDEpdiCo
.align	32
.Laes_256_gBarGmeeDEpdiCo:
	vpxorq	0(%rdi),%xmm1,%xmm1

	vaesenc	16(%rdi),%xmm1,%xmm1

	vaesenc	32(%rdi),%xmm1,%xmm1

	vaesenc	48(%rdi),%xmm1,%xmm1

	vaesenc	64(%rdi),%xmm1,%xmm1

	vaesenc	80(%rdi),%xmm1,%xmm1

	vaesenc	96(%rdi),%xmm1,%xmm1

	vaesenc	112(%rdi),%xmm1,%xmm1

	vaesenc	128(%rdi),%xmm1,%xmm1

	vaesenc	144(%rdi),%xmm1,%xmm1

	vaesenc	160(%rdi),%xmm1,%xmm1

	vaesenc	176(%rdi),%xmm1,%xmm1

	vaesenc	192(%rdi),%xmm1,%xmm1

	vaesenc	208(%rdi),%xmm1,%xmm1

	vaesenclast	224(%rdi),%xmm1,%xmm1
	jmp	.Lexit_aes_gBarGmeeDEpdiCo
.Lexit_aes_gBarGmeeDEpdiCo:

	vmovdqu	%xmm1,32(%rsi)


	vpshufb	SHUF_MASK(%rip),%xmm2,%xmm2
	vmovdqu	%xmm2,0(%rsi)
.Lexit_setiv:
	cmpq	$256,%rcx
	jbe	.Lskip_hkeys_cleanup_tobwtGBgdymhDAp
	vpxor	%xmm0,%xmm0,%xmm0
	vmovdqa64	%zmm0,0(%rsp)
	vmovdqa64	%zmm0,64(%rsp)
	vmovdqa64	%zmm0,128(%rsp)
	vmovdqa64	%zmm0,192(%rsp)
	vmovdqa64	%zmm0,256(%rsp)
	vmovdqa64	%zmm0,320(%rsp)
	vmovdqa64	%zmm0,384(%rsp)
	vmovdqa64	%zmm0,448(%rsp)
	vmovdqa64	%zmm0,512(%rsp)
	vmovdqa64	%zmm0,576(%rsp)
	vmovdqa64	%zmm0,640(%rsp)
	vmovdqa64	%zmm0,704(%rsp)
.Lskip_hkeys_cleanup_tobwtGBgdymhDAp:
	vzeroupper
	leaq	(%rbp),%rsp
.cfi_def_cfa_register	%rsp
	popq	%r15
.cfi_adjust_cfa_offset	-8
.cfi_restore	%r15
	popq	%r14
.cfi_adjust_cfa_offset	-8
.cfi_restore	%r14
	popq	%r13
.cfi_adjust_cfa_offset	-8
.cfi_restore	%r13
	popq	%r12
.cfi_adjust_cfa_offset	-8
.cfi_restore	%r12
	popq	%rbp
.cfi_adjust_cfa_offset	-8
.cfi_restore	%rbp
	popq	%rbx
.cfi_adjust_cfa_offset	-8
.cfi_restore	%rbx
	.byte	0xf3,0xc3
.Lsetiv_seh_end:
.cfi_endproc	
.size	gcm_setiv_avx512, .-gcm_setiv_avx512
.globl	aes_gcm_encrypt_avx512
.hidden aes_gcm_encrypt_avx512
.hidden	aes_gcm_encrypt_avx512
.type	aes_gcm_encrypt_avx512,@function
.align	32
aes_gcm_encrypt_avx512:
.cfi_startproc	
.Lencrypt_seh_begin:
#ifdef BORINGSSL_DISPATCH_TEST

	movb	$1,BORINGSSL_function_hit+6(%rip)
#endif
.byte	243,15,30,250
	pushq	%rbx
.cfi_adjust_cfa_offset	8
.cfi_offset	%rbx,-16
.Lencrypt_seh_push_rbx:
	pushq	%rbp
.cfi_adjust_cfa_offset	8
.cfi_offset	%rbp,-24
.Lencrypt_seh_push_rbp:
	pushq	%r12
.cfi_adjust_cfa_offset	8
.cfi_offset	%r12,-32
.Lencrypt_seh_push_r12:
	pushq	%r13
.cfi_adjust_cfa_offset	8
.cfi_offset	%r13,-40
.Lencrypt_seh_push_r13:
	pushq	%r14
.cfi_adjust_cfa_offset	8
.cfi_offset	%r14,-48
.Lencrypt_seh_push_r14:
	pushq	%r15
.cfi_adjust_cfa_offset	8
.cfi_offset	%r15,-56
.Lencrypt_seh_push_r15:










	leaq	0(%rsp),%rbp
.cfi_def_cfa_register	%rbp
.Lencrypt_seh_setfp:

.Lencrypt_seh_prolog_end:
	subq	$1588,%rsp
	andq	$(-64),%rsp


	movl	240(%rdi),%eax
	cmpl	$9,%eax
	je	.Laes_gcm_encrypt_128_avx512
	cmpl	$11,%eax
	je	.Laes_gcm_encrypt_192_avx512
	cmpl	$13,%eax
	je	.Laes_gcm_encrypt_256_avx512
	xorl	%eax,%eax
	jmp	.Lexit_gcm_encrypt
.align	32
.Laes_gcm_encrypt_128_avx512:
	orq	%r8,%r8
	je	.L_enc_dec_abort_azipfweEtBGedwu
	xorq	%r14,%r14
	vmovdqu64	64(%rsi),%xmm14
	vpshufb	SHUF_MASK(%rip),%xmm14,%xmm14

	movl	(%rdx),%eax
	orq	%rax,%rax
	je	.L_partial_block_done_CfhydhidqGrrhDm
	movl	$16,%r10d
	leaq	byte_len_to_mask_table(%rip),%r12
	cmpq	%r10,%r8
	cmovcq	%r8,%r10
	kmovw	(%r12,%r10,2),%k1
	vmovdqu8	(%rcx),%xmm0{%k1}{z}

	vmovdqu64	16(%rsi),%xmm3

	leaq	96(%rsi),%r10
	vmovdqu64	240(%r10),%xmm4



	leaq	SHIFT_MASK(%rip),%r12
	addq	%rax,%r12
	vmovdqu64	(%r12),%xmm5
	vpshufb	%xmm5,%xmm3,%xmm3
	vpxorq	%xmm0,%xmm3,%xmm3


	leaq	(%r8,%rax,1),%r13
	subq	$16,%r13
	jge	.L_no_extra_mask_CfhydhidqGrrhDm
	subq	%r13,%r12
.L_no_extra_mask_CfhydhidqGrrhDm:



	vmovdqu64	16(%r12),%xmm0
	vpand	%xmm0,%xmm3,%xmm3
	vpshufb	SHUF_MASK(%rip),%xmm3,%xmm3
	vpshufb	%xmm5,%xmm3,%xmm3
	vpxorq	%xmm3,%xmm14,%xmm14
	cmpq	$0,%r13
	jl	.L_partial_incomplete_CfhydhidqGrrhDm

	vpclmulqdq	$0x11,%xmm4,%xmm14,%xmm7
	vpclmulqdq	$0x00,%xmm4,%xmm14,%xmm10
	vpclmulqdq	$0x01,%xmm4,%xmm14,%xmm11
	vpclmulqdq	$0x10,%xmm4,%xmm14,%xmm14
	vpxorq	%xmm11,%xmm14,%xmm14

	vpsrldq	$8,%xmm14,%xmm11
	vpslldq	$8,%xmm14,%xmm14
	vpxorq	%xmm11,%xmm7,%xmm7
	vpxorq	%xmm10,%xmm14,%xmm14



	vmovdqu64	POLY2(%rip),%xmm11

	vpclmulqdq	$0x01,%xmm14,%xmm11,%xmm10
	vpslldq	$8,%xmm10,%xmm10
	vpxorq	%xmm10,%xmm14,%xmm14



	vpclmulqdq	$0x00,%xmm14,%xmm11,%xmm10
	vpsrldq	$4,%xmm10,%xmm10
	vpclmulqdq	$0x10,%xmm14,%xmm11,%xmm14
	vpslldq	$4,%xmm14,%xmm14

	vpternlogq	$0x96,%xmm10,%xmm7,%xmm14

	movl	$0,(%rdx)

	movq	%rax,%r12
	movq	$16,%rax
	subq	%r12,%rax
	jmp	.L_enc_dec_done_CfhydhidqGrrhDm

.L_partial_incomplete_CfhydhidqGrrhDm:
	addl	%r8d,(%rdx)
	movq	%r8,%rax

.L_enc_dec_done_CfhydhidqGrrhDm:


	leaq	byte_len_to_mask_table(%rip),%r12
	kmovw	(%r12,%rax,2),%k1

	vpshufb	SHUF_MASK(%rip),%xmm3,%xmm3
	vpshufb	%xmm5,%xmm3,%xmm3
	movq	%r9,%r12
	vmovdqu8	%xmm3,(%r12){%k1}
.L_partial_block_done_CfhydhidqGrrhDm:
	vmovdqu64	0(%rsi),%xmm2
	subq	%rax,%r8
	je	.L_enc_dec_done_azipfweEtBGedwu
	cmpq	$256,%r8
	jbe	.L_message_below_equal_16_blocks_azipfweEtBGedwu

	vmovdqa64	SHUF_MASK(%rip),%zmm29
	vmovdqa64	ddq_addbe_4444(%rip),%zmm27
	vmovdqa64	ddq_addbe_1234(%rip),%zmm28






	vmovd	%xmm2,%r15d
	andl	$255,%r15d

	vshufi64x2	$0,%zmm2,%zmm2,%zmm2
	vpshufb	%zmm29,%zmm2,%zmm2



	cmpb	$240,%r15b
	jae	.L_next_16_overflow_AyDEuzEwgEjfCmg
	vpaddd	%zmm28,%zmm2,%zmm7
	vpaddd	%zmm27,%zmm7,%zmm10
	vpaddd	%zmm27,%zmm10,%zmm11
	vpaddd	%zmm27,%zmm11,%zmm12
	jmp	.L_next_16_ok_AyDEuzEwgEjfCmg
.L_next_16_overflow_AyDEuzEwgEjfCmg:
	vpshufb	%zmm29,%zmm2,%zmm2
	vmovdqa64	ddq_add_4444(%rip),%zmm12
	vpaddd	ddq_add_1234(%rip),%zmm2,%zmm7
	vpaddd	%zmm12,%zmm7,%zmm10
	vpaddd	%zmm12,%zmm10,%zmm11
	vpaddd	%zmm12,%zmm11,%zmm12
	vpshufb	%zmm29,%zmm7,%zmm7
	vpshufb	%zmm29,%zmm10,%zmm10
	vpshufb	%zmm29,%zmm11,%zmm11
	vpshufb	%zmm29,%zmm12,%zmm12
.L_next_16_ok_AyDEuzEwgEjfCmg:
	vshufi64x2	$255,%zmm12,%zmm12,%zmm2
	addb	$16,%r15b

	vmovdqu8	0(%rcx,%rax,1),%zmm0
	vmovdqu8	64(%rcx,%rax,1),%zmm3
	vmovdqu8	128(%rcx,%rax,1),%zmm4
	vmovdqu8	192(%rcx,%rax,1),%zmm5


	vbroadcastf64x2	0(%rdi),%zmm6
	vpxorq	%zmm6,%zmm7,%zmm7
	vpxorq	%zmm6,%zmm10,%zmm10
	vpxorq	%zmm6,%zmm11,%zmm11
	vpxorq	%zmm6,%zmm12,%zmm12
	vbroadcastf64x2	16(%rdi),%zmm6
	vaesenc	%zmm6,%zmm7,%zmm7
	vaesenc	%zmm6,%zmm10,%zmm10
	vaesenc	%zmm6,%zmm11,%zmm11
	vaesenc	%zmm6,%zmm12,%zmm12
	vbroadcastf64x2	32(%rdi),%zmm6
	vaesenc	%zmm6,%zmm7,%zmm7
	vaesenc	%zmm6,%zmm10,%zmm10
	vaesenc	%zmm6,%zmm11,%zmm11
	vaesenc	%zmm6,%zmm12,%zmm12
	vbroadcastf64x2	48(%rdi),%zmm6
	vaesenc	%zmm6,%zmm7,%zmm7
	vaesenc	%zmm6,%zmm10,%zmm10
	vaesenc	%zmm6,%zmm11,%zmm11
	vaesenc	%zmm6,%zmm12,%zmm12
	vbroadcastf64x2	64(%rdi),%zmm6
	vaesenc	%zmm6,%zmm7,%zmm7
	vaesenc	%zmm6,%zmm10,%zmm10
	vaesenc	%zmm6,%zmm11,%zmm11
	vaesenc	%zmm6,%zmm12,%zmm12
	vbroadcastf64x2	80(%rdi),%zmm6
	vaesenc	%zmm6,%zmm7,%zmm7
	vaesenc	%zmm6,%zmm10,%zmm10
	vaesenc	%zmm6,%zmm11,%zmm11
	vaesenc	%zmm6,%zmm12,%zmm12
	vbroadcastf64x2	96(%rdi),%zmm6
	vaesenc	%zmm6,%zmm7,%zmm7
	vaesenc	%zmm6,%zmm10,%zmm10
	vaesenc	%zmm6,%zmm11,%zmm11
	vaesenc	%zmm6,%zmm12,%zmm12
	vbroadcastf64x2	112(%rdi),%zmm6
	vaesenc	%zmm6,%zmm7,%zmm7
	vaesenc	%zmm6,%zmm10,%zmm10
	vaesenc	%zmm6,%zmm11,%zmm11
	vaesenc	%zmm6,%zmm12,%zmm12
	vbroadcastf64x2	128(%rdi),%zmm6
	vaesenc	%zmm6,%zmm7,%zmm7
	vaesenc	%zmm6,%zmm10,%zmm10
	vaesenc	%zmm6,%zmm11,%zmm11
	vaesenc	%zmm6,%zmm12,%zmm12
	vbroadcastf64x2	144(%rdi),%zmm6
	vaesenc	%zmm6,%zmm7,%zmm7
	vaesenc	%zmm6,%zmm10,%zmm10
	vaesenc	%zmm6,%zmm11,%zmm11
	vaesenc	%zmm6,%zmm12,%zmm12
	vbroadcastf64x2	160(%rdi),%zmm6
	vaesenclast	%zmm6,%zmm7,%zmm7
	vaesenclast	%zmm6,%zmm10,%zmm10
	vaesenclast	%zmm6,%zmm11,%zmm11
	vaesenclast	%zmm6,%zmm12,%zmm12


	vpxorq	%zmm0,%zmm7,%zmm7
	vpxorq	%zmm3,%zmm10,%zmm10
	vpxorq	%zmm4,%zmm11,%zmm11
	vpxorq	%zmm5,%zmm12,%zmm12


	movq	%r9,%r10
	vmovdqu8	%zmm7,0(%r10,%rax,1)
	vmovdqu8	%zmm10,64(%r10,%rax,1)
	vmovdqu8	%zmm11,128(%r10,%rax,1)
	vmovdqu8	%zmm12,192(%r10,%rax,1)

	vpshufb	%zmm29,%zmm7,%zmm7
	vpshufb	%zmm29,%zmm10,%zmm10
	vpshufb	%zmm29,%zmm11,%zmm11
	vpshufb	%zmm29,%zmm12,%zmm12
	vmovdqa64	%zmm7,768(%rsp)
	vmovdqa64	%zmm10,832(%rsp)
	vmovdqa64	%zmm11,896(%rsp)
	vmovdqa64	%zmm12,960(%rsp)
	leaq	96(%rsi),%r12
	testq	%r14,%r14
	jnz	.L_skip_hkeys_precomputation_FcBajairhnxqwmt

	vmovdqu64	192(%r12),%zmm0
	vmovdqu64	%zmm0,704(%rsp)

	vmovdqu64	128(%r12),%zmm3
	vmovdqu64	%zmm3,640(%rsp)


	vshufi64x2	$0x00,%zmm3,%zmm3,%zmm3

	vmovdqu64	64(%r12),%zmm4
	vmovdqu64	%zmm4,576(%rsp)

	vmovdqu64	0(%r12),%zmm5
	vmovdqu64	%zmm5,512(%rsp)
.L_skip_hkeys_precomputation_FcBajairhnxqwmt:
	cmpq	$512,%r8
	jb	.L_message_below_32_blocks_azipfweEtBGedwu



	cmpb	$240,%r15b
	jae	.L_next_16_overflow_bcDaCCjdjhtdcmj
	vpaddd	%zmm28,%zmm2,%zmm7
	vpaddd	%zmm27,%zmm7,%zmm10
	vpaddd	%zmm27,%zmm10,%zmm11
	vpaddd	%zmm27,%zmm11,%zmm12
	jmp	.L_next_16_ok_bcDaCCjdjhtdcmj
.L_next_16_overflow_bcDaCCjdjhtdcmj:
	vpshufb	%zmm29,%zmm2,%zmm2
	vmovdqa64	ddq_add_4444(%rip),%zmm12
	vpaddd	ddq_add_1234(%rip),%zmm2,%zmm7
	vpaddd	%zmm12,%zmm7,%zmm10
	vpaddd	%zmm12,%zmm10,%zmm11
	vpaddd	%zmm12,%zmm11,%zmm12
	vpshufb	%zmm29,%zmm7,%zmm7
	vpshufb	%zmm29,%zmm10,%zmm10
	vpshufb	%zmm29,%zmm11,%zmm11
	vpshufb	%zmm29,%zmm12,%zmm12
.L_next_16_ok_bcDaCCjdjhtdcmj:
	vshufi64x2	$255,%zmm12,%zmm12,%zmm2
	addb	$16,%r15b

	vmovdqu8	256(%rcx,%rax,1),%zmm0
	vmovdqu8	320(%rcx,%rax,1),%zmm3
	vmovdqu8	384(%rcx,%rax,1),%zmm4
	vmovdqu8	448(%rcx,%rax,1),%zmm5


	vbroadcastf64x2	0(%rdi),%zmm6
	vpxorq	%zmm6,%zmm7,%zmm7
	vpxorq	%zmm6,%zmm10,%zmm10
	vpxorq	%zmm6,%zmm11,%zmm11
	vpxorq	%zmm6,%zmm12,%zmm12
	vbroadcastf64x2	16(%rdi),%zmm6
	vaesenc	%zmm6,%zmm7,%zmm7
	vaesenc	%zmm6,%zmm10,%zmm10
	vaesenc	%zmm6,%zmm11,%zmm11
	vaesenc	%zmm6,%zmm12,%zmm12
	vbroadcastf64x2	32(%rdi),%zmm6
	vaesenc	%zmm6,%zmm7,%zmm7
	vaesenc	%zmm6,%zmm10,%zmm10
	vaesenc	%zmm6,%zmm11,%zmm11
	vaesenc	%zmm6,%zmm12,%zmm12
	vbroadcastf64x2	48(%rdi),%zmm6
	vaesenc	%zmm6,%zmm7,%zmm7
	vaesenc	%zmm6,%zmm10,%zmm10
	vaesenc	%zmm6,%zmm11,%zmm11
	vaesenc	%zmm6,%zmm12,%zmm12
	vbroadcastf64x2	64(%rdi),%zmm6
	vaesenc	%zmm6,%zmm7,%zmm7
	vaesenc	%zmm6,%zmm10,%zmm10
	vaesenc	%zmm6,%zmm11,%zmm11
	vaesenc	%zmm6,%zmm12,%zmm12
	vbroadcastf64x2	80(%rdi),%zmm6
	vaesenc	%zmm6,%zmm7,%zmm7
	vaesenc	%zmm6,%zmm10,%zmm10
	vaesenc	%zmm6,%zmm11,%zmm11
	vaesenc	%zmm6,%zmm12,%zmm12
	vbroadcastf64x2	96(%rdi),%zmm6
	vaesenc	%zmm6,%zmm7,%zmm7
	vaesenc	%zmm6,%zmm10,%zmm10
	vaesenc	%zmm6,%zmm11,%zmm11
	vaesenc	%zmm6,%zmm12,%zmm12
	vbroadcastf64x2	112(%rdi),%zmm6
	vaesenc	%zmm6,%zmm7,%zmm7
	vaesenc	%zmm6,%zmm10,%zmm10
	vaesenc	%zmm6,%zmm11,%zmm11
	vaesenc	%zmm6,%zmm12,%zmm12
	vbroadcastf64x2	128(%rdi),%zmm6
	vaesenc	%zmm6,%zmm7,%zmm7
	vaesenc	%zmm6,%zmm10,%zmm10
	vaesenc	%zmm6,%zmm11,%zmm11
	vaesenc	%zmm6,%zmm12,%zmm12
	vbroadcastf64x2	144(%rdi),%zmm6
	vaesenc	%zmm6,%zmm7,%zmm7
	vaesenc	%zmm6,%zmm10,%zmm10
	vaesenc	%zmm6,%zmm11,%zmm11
	vaesenc	%zmm6,%zmm12,%zmm12
	vbroadcastf64x2	160(%rdi),%zmm6
	vaesenclast	%zmm6,%zmm7,%zmm7
	vaesenclast	%zmm6,%zmm10,%zmm10
	vaesenclast	%zmm6,%zmm11,%zmm11
	vaesenclast	%zmm6,%zmm12,%zmm12


	vpxorq	%zmm0,%zmm7,%zmm7
	vpxorq	%zmm3,%zmm10,%zmm10
	vpxorq	%zmm4,%zmm11,%zmm11
	vpxorq	%zmm5,%zmm12,%zmm12


	movq	%r9,%r10
	vmovdqu8	%zmm7,256(%r10,%rax,1)
	vmovdqu8	%zmm10,320(%r10,%rax,1)
	vmovdqu8	%zmm11,384(%r10,%rax,1)
	vmovdqu8	%zmm12,448(%r10,%rax,1)

	vpshufb	%zmm29,%zmm7,%zmm7
	vpshufb	%zmm29,%zmm10,%zmm10
	vpshufb	%zmm29,%zmm11,%zmm11
	vpshufb	%zmm29,%zmm12,%zmm12
	vmovdqa64	%zmm7,1024(%rsp)
	vmovdqa64	%zmm10,1088(%rsp)
	vmovdqa64	%zmm11,1152(%rsp)
	vmovdqa64	%zmm12,1216(%rsp)
	testq	%r14,%r14
	jnz	.L_skip_hkeys_precomputation_ckGGaeClqtApzBC
	vmovdqu64	640(%rsp),%zmm3


	vshufi64x2	$0x00,%zmm3,%zmm3,%zmm3

	vmovdqu64	576(%rsp),%zmm4
	vmovdqu64	512(%rsp),%zmm5

	vpclmulqdq	$0x11,%zmm3,%zmm4,%zmm6
	vpclmulqdq	$0x00,%zmm3,%zmm4,%zmm7
	vpclmulqdq	$0x01,%zmm3,%zmm4,%zmm10
	vpclmulqdq	$0x10,%zmm3,%zmm4,%zmm4
	vpxorq	%zmm10,%zmm4,%zmm4

	vpsrldq	$8,%zmm4,%zmm10
	vpslldq	$8,%zmm4,%zmm4
	vpxorq	%zmm10,%zmm6,%zmm6
	vpxorq	%zmm7,%zmm4,%zmm4



	vmovdqu64	POLY2(%rip),%zmm10

	vpclmulqdq	$0x01,%zmm4,%zmm10,%zmm7
	vpslldq	$8,%zmm7,%zmm7
	vpxorq	%zmm7,%zmm4,%zmm4



	vpclmulqdq	$0x00,%zmm4,%zmm10,%zmm7
	vpsrldq	$4,%zmm7,%zmm7
	vpclmulqdq	$0x10,%zmm4,%zmm10,%zmm4
	vpslldq	$4,%zmm4,%zmm4

	vpternlogq	$0x96,%zmm7,%zmm6,%zmm4

	vmovdqu64	%zmm4,448(%rsp)

	vpclmulqdq	$0x11,%zmm3,%zmm5,%zmm6
	vpclmulqdq	$0x00,%zmm3,%zmm5,%zmm7
	vpclmulqdq	$0x01,%zmm3,%zmm5,%zmm10
	vpclmulqdq	$0x10,%zmm3,%zmm5,%zmm5
	vpxorq	%zmm10,%zmm5,%zmm5

	vpsrldq	$8,%zmm5,%zmm10
	vpslldq	$8,%zmm5,%zmm5
	vpxorq	%zmm10,%zmm6,%zmm6
	vpxorq	%zmm7,%zmm5,%zmm5



	vmovdqu64	POLY2(%rip),%zmm10

	vpclmulqdq	$0x01,%zmm5,%zmm10,%zmm7
	vpslldq	$8,%zmm7,%zmm7
	vpxorq	%zmm7,%zmm5,%zmm5



	vpclmulqdq	$0x00,%zmm5,%zmm10,%zmm7
	vpsrldq	$4,%zmm7,%zmm7
	vpclmulqdq	$0x10,%zmm5,%zmm10,%zmm5
	vpslldq	$4,%zmm5,%zmm5

	vpternlogq	$0x96,%zmm7,%zmm6,%zmm5

	vmovdqu64	%zmm5,384(%rsp)

	vpclmulqdq	$0x11,%zmm3,%zmm4,%zmm6
	vpclmulqdq	$0x00,%zmm3,%zmm4,%zmm7
	vpclmulqdq	$0x01,%zmm3,%zmm4,%zmm10
	vpclmulqdq	$0x10,%zmm3,%zmm4,%zmm4
	vpxorq	%zmm10,%zmm4,%zmm4

	vpsrldq	$8,%zmm4,%zmm10
	vpslldq	$8,%zmm4,%zmm4
	vpxorq	%zmm10,%zmm6,%zmm6
	vpxorq	%zmm7,%zmm4,%zmm4



	vmovdqu64	POLY2(%rip),%zmm10

	vpclmulqdq	$0x01,%zmm4,%zmm10,%zmm7
	vpslldq	$8,%zmm7,%zmm7
	vpxorq	%zmm7,%zmm4,%zmm4



	vpclmulqdq	$0x00,%zmm4,%zmm10,%zmm7
	vpsrldq	$4,%zmm7,%zmm7
	vpclmulqdq	$0x10,%zmm4,%zmm10,%zmm4
	vpslldq	$4,%zmm4,%zmm4

	vpternlogq	$0x96,%zmm7,%zmm6,%zmm4

	vmovdqu64	%zmm4,320(%rsp)

	vpclmulqdq	$0x11,%zmm3,%zmm5,%zmm6
	vpclmulqdq	$0x00,%zmm3,%zmm5,%zmm7
	vpclmulqdq	$0x01,%zmm3,%zmm5,%zmm10
	vpclmulqdq	$0x10,%zmm3,%zmm5,%zmm5
	vpxorq	%zmm10,%zmm5,%zmm5

	vpsrldq	$8,%zmm5,%zmm10
	vpslldq	$8,%zmm5,%zmm5
	vpxorq	%zmm10,%zmm6,%zmm6
	vpxorq	%zmm7,%zmm5,%zmm5



	vmovdqu64	POLY2(%rip),%zmm10

	vpclmulqdq	$0x01,%zmm5,%zmm10,%zmm7
	vpslldq	$8,%zmm7,%zmm7
	vpxorq	%zmm7,%zmm5,%zmm5



	vpclmulqdq	$0x00,%zmm5,%zmm10,%zmm7
	vpsrldq	$4,%zmm7,%zmm7
	vpclmulqdq	$0x10,%zmm5,%zmm10,%zmm5
	vpslldq	$4,%zmm5,%zmm5

	vpternlogq	$0x96,%zmm7,%zmm6,%zmm5

	vmovdqu64	%zmm5,256(%rsp)

	vpclmulqdq	$0x11,%zmm3,%zmm4,%zmm6
	vpclmulqdq	$0x00,%zmm3,%zmm4,%zmm7
	vpclmulqdq	$0x01,%zmm3,%zmm4,%zmm10
	vpclmulqdq	$0x10,%zmm3,%zmm4,%zmm4
	vpxorq	%zmm10,%zmm4,%zmm4

	vpsrldq	$8,%zmm4,%zmm10
	vpslldq	$8,%zmm4,%zmm4
	vpxorq	%zmm10,%zmm6,%zmm6
	vpxorq	%zmm7,%zmm4,%zmm4



	vmovdqu64	POLY2(%rip),%zmm10

	vpclmulqdq	$0x01,%zmm4,%zmm10,%zmm7
	vpslldq	$8,%zmm7,%zmm7
	vpxorq	%zmm7,%zmm4,%zmm4



	vpclmulqdq	$0x00,%zmm4,%zmm10,%zmm7
	vpsrldq	$4,%zmm7,%zmm7
	vpclmulqdq	$0x10,%zmm4,%zmm10,%zmm4
	vpslldq	$4,%zmm4,%zmm4

	vpternlogq	$0x96,%zmm7,%zmm6,%zmm4

	vmovdqu64	%zmm4,192(%rsp)

	vpclmulqdq	$0x11,%zmm3,%zmm5,%zmm6
	vpclmulqdq	$0x00,%zmm3,%zmm5,%zmm7
	vpclmulqdq	$0x01,%zmm3,%zmm5,%zmm10
	vpclmulqdq	$0x10,%zmm3,%zmm5,%zmm5
	vpxorq	%zmm10,%zmm5,%zmm5

	vpsrldq	$8,%zmm5,%zmm10
	vpslldq	$8,%zmm5,%zmm5
	vpxorq	%zmm10,%zmm6,%zmm6
	vpxorq	%zmm7,%zmm5,%zmm5



	vmovdqu64	POLY2(%rip),%zmm10

	vpclmulqdq	$0x01,%zmm5,%zmm10,%zmm7
	vpslldq	$8,%zmm7,%zmm7
	vpxorq	%zmm7,%zmm5,%zmm5



	vpclmulqdq	$0x00,%zmm5,%zmm10,%zmm7
	vpsrldq	$4,%zmm7,%zmm7
	vpclmulqdq	$0x10,%zmm5,%zmm10,%zmm5
	vpslldq	$4,%zmm5,%zmm5

	vpternlogq	$0x96,%zmm7,%zmm6,%zmm5

	vmovdqu64	%zmm5,128(%rsp)

	vpclmulqdq	$0x11,%zmm3,%zmm4,%zmm6
	vpclmulqdq	$0x00,%zmm3,%zmm4,%zmm7
	vpclmulqdq	$0x01,%zmm3,%zmm4,%zmm10
	vpclmulqdq	$0x10,%zmm3,%zmm4,%zmm4
	vpxorq	%zmm10,%zmm4,%zmm4

	vpsrldq	$8,%zmm4,%zmm10
	vpslldq	$8,%zmm4,%zmm4
	vpxorq	%zmm10,%zmm6,%zmm6
	vpxorq	%zmm7,%zmm4,%zmm4



	vmovdqu64	POLY2(%rip),%zmm10

	vpclmulqdq	$0x01,%zmm4,%zmm10,%zmm7
	vpslldq	$8,%zmm7,%zmm7
	vpxorq	%zmm7,%zmm4,%zmm4



	vpclmulqdq	$0x00,%zmm4,%zmm10,%zmm7
	vpsrldq	$4,%zmm7,%zmm7
	vpclmulqdq	$0x10,%zmm4,%zmm10,%zmm4
	vpslldq	$4,%zmm4,%zmm4

	vpternlogq	$0x96,%zmm7,%zmm6,%zmm4

	vmovdqu64	%zmm4,64(%rsp)

	vpclmulqdq	$0x11,%zmm3,%zmm5,%zmm6
	vpclmulqdq	$0x00,%zmm3,%zmm5,%zmm7
	vpclmulqdq	$0x01,%zmm3,%zmm5,%zmm10
	vpclmulqdq	$0x10,%zmm3,%zmm5,%zmm5
	vpxorq	%zmm10,%zmm5,%zmm5

	vpsrldq	$8,%zmm5,%zmm10
	vpslldq	$8,%zmm5,%zmm5
	vpxorq	%zmm10,%zmm6,%zmm6
	vpxorq	%zmm7,%zmm5,%zmm5



	vmovdqu64	POLY2(%rip),%zmm10

	vpclmulqdq	$0x01,%zmm5,%zmm10,%zmm7
	vpslldq	$8,%zmm7,%zmm7
	vpxorq	%zmm7,%zmm5,%zmm5



	vpclmulqdq	$0x00,%zmm5,%zmm10,%zmm7
	vpsrldq	$4,%zmm7,%zmm7
	vpclmulqdq	$0x10,%zmm5,%zmm10,%zmm5
	vpslldq	$4,%zmm5,%zmm5

	vpternlogq	$0x96,%zmm7,%zmm6,%zmm5

	vmovdqu64	%zmm5,0(%rsp)
.L_skip_hkeys_precomputation_ckGGaeClqtApzBC:
	movq	$1,%r14
	addq	$512,%rax
	subq	$512,%r8

	cmpq	$768,%r8
	jb	.L_no_more_big_nblocks_azipfweEtBGedwu
.L_encrypt_big_nblocks_azipfweEtBGedwu:
	cmpb	$240,%r15b
	jae	.L_16_blocks_overflow_kwznwiGGDDarvqz
	vpaddd	%zmm28,%zmm2,%zmm0
	vpaddd	%zmm27,%zmm0,%zmm3
	vpaddd	%zmm27,%zmm3,%zmm4
	vpaddd	%zmm27,%zmm4,%zmm5
	jmp	.L_16_blocks_ok_kwznwiGGDDarvqz
.L_16_blocks_overflow_kwznwiGGDDarvqz:
	vpshufb	%zmm29,%zmm2,%zmm2
	vmovdqa64	ddq_add_4444(%rip),%zmm5
	vpaddd	ddq_add_1234(%rip),%zmm2,%zmm0
	vpaddd	%zmm5,%zmm0,%zmm3
	vpaddd	%zmm5,%zmm3,%zmm4
	vpaddd	%zmm5,%zmm4,%zmm5
	vpshufb	%zmm29,%zmm0,%zmm0
	vpshufb	%zmm29,%zmm3,%zmm3
	vpshufb	%zmm29,%zmm4,%zmm4
	vpshufb	%zmm29,%zmm5,%zmm5
.L_16_blocks_ok_kwznwiGGDDarvqz:
	vbroadcastf64x2	0(%rdi),%zmm30
	vpxorq	768(%rsp),%zmm14,%zmm8
	vmovdqu64	0(%rsp),%zmm1




	vshufi64x2	$255,%zmm5,%zmm5,%zmm2
	addb	$16,%r15b


	vbroadcastf64x2	16(%rdi),%zmm31
	vmovdqu64	64(%rsp),%zmm18
	vmovdqa64	832(%rsp),%zmm22







	vpxorq	%zmm30,%zmm0,%zmm0
	vpxorq	%zmm30,%zmm3,%zmm3
	vpxorq	%zmm30,%zmm4,%zmm4
	vpxorq	%zmm30,%zmm5,%zmm5
	vbroadcastf64x2	32(%rdi),%zmm30



	vpclmulqdq	$0x11,%zmm1,%zmm8,%zmm6
	vpclmulqdq	$0x00,%zmm1,%zmm8,%zmm7
	vpclmulqdq	$0x01,%zmm1,%zmm8,%zmm10
	vpclmulqdq	$0x10,%zmm1,%zmm8,%zmm11
	vmovdqu64	128(%rsp),%zmm1
	vmovdqa64	896(%rsp),%zmm8



	vaesenc	%zmm31,%zmm0,%zmm0
	vaesenc	%zmm31,%zmm3,%zmm3
	vaesenc	%zmm31,%zmm4,%zmm4
	vaesenc	%zmm31,%zmm5,%zmm5
	vbroadcastf64x2	48(%rdi),%zmm31



	vpclmulqdq	$0x10,%zmm18,%zmm22,%zmm15
	vpclmulqdq	$0x01,%zmm18,%zmm22,%zmm16
	vpclmulqdq	$0x11,%zmm18,%zmm22,%zmm12
	vpclmulqdq	$0x00,%zmm18,%zmm22,%zmm13
	vmovdqu64	192(%rsp),%zmm18
	vmovdqa64	960(%rsp),%zmm22



	vaesenc	%zmm30,%zmm0,%zmm0
	vaesenc	%zmm30,%zmm3,%zmm3
	vaesenc	%zmm30,%zmm4,%zmm4
	vaesenc	%zmm30,%zmm5,%zmm5
	vbroadcastf64x2	64(%rdi),%zmm30



	vpclmulqdq	$0x10,%zmm1,%zmm8,%zmm20
	vpclmulqdq	$0x01,%zmm1,%zmm8,%zmm21
	vpclmulqdq	$0x11,%zmm1,%zmm8,%zmm17
	vpclmulqdq	$0x00,%zmm1,%zmm8,%zmm19


	vaesenc	%zmm31,%zmm0,%zmm0
	vaesenc	%zmm31,%zmm3,%zmm3
	vaesenc	%zmm31,%zmm4,%zmm4
	vaesenc	%zmm31,%zmm5,%zmm5
	vbroadcastf64x2	80(%rdi),%zmm31



	vpternlogq	$0x96,%zmm17,%zmm12,%zmm6
	vpternlogq	$0x96,%zmm19,%zmm13,%zmm7
	vpternlogq	$0x96,%zmm21,%zmm16,%zmm11
	vpternlogq	$0x96,%zmm20,%zmm15,%zmm10



	vaesenc	%zmm30,%zmm0,%zmm0
	vaesenc	%zmm30,%zmm3,%zmm3
	vaesenc	%zmm30,%zmm4,%zmm4
	vaesenc	%zmm30,%zmm5,%zmm5
	vbroadcastf64x2	96(%rdi),%zmm30



	vmovdqu8	0(%rcx,%rax,1),%zmm17
	vmovdqu8	64(%rcx,%rax,1),%zmm19
	vmovdqu8	128(%rcx,%rax,1),%zmm20
	vmovdqu8	192(%rcx,%rax,1),%zmm21



	vaesenc	%zmm31,%zmm0,%zmm0
	vaesenc	%zmm31,%zmm3,%zmm3
	vaesenc	%zmm31,%zmm4,%zmm4
	vaesenc	%zmm31,%zmm5,%zmm5
	vbroadcastf64x2	112(%rdi),%zmm31



	vpclmulqdq	$0x10,%zmm18,%zmm22,%zmm15
	vpclmulqdq	$0x01,%zmm18,%zmm22,%zmm16
	vpclmulqdq	$0x11,%zmm18,%zmm22,%zmm12
	vpclmulqdq	$0x00,%zmm18,%zmm22,%zmm13


	vaesenc	%zmm30,%zmm0,%zmm0
	vaesenc	%zmm30,%zmm3,%zmm3
	vaesenc	%zmm30,%zmm4,%zmm4
	vaesenc	%zmm30,%zmm5,%zmm5
	vbroadcastf64x2	128(%rdi),%zmm30
	vpternlogq	$0x96,%zmm16,%zmm11,%zmm10
	vpxorq	%zmm15,%zmm10,%zmm26
	vpxorq	%zmm12,%zmm6,%zmm24
	vpxorq	%zmm13,%zmm7,%zmm25
	vaesenc	%zmm31,%zmm0,%zmm0
	vaesenc	%zmm31,%zmm3,%zmm3
	vaesenc	%zmm31,%zmm4,%zmm4
	vaesenc	%zmm31,%zmm5,%zmm5
	vbroadcastf64x2	144(%rdi),%zmm31
	vaesenc	%zmm30,%zmm0,%zmm0
	vaesenc	%zmm30,%zmm3,%zmm3
	vaesenc	%zmm30,%zmm4,%zmm4
	vaesenc	%zmm30,%zmm5,%zmm5
	vbroadcastf64x2	160(%rdi),%zmm30
	vaesenc	%zmm31,%zmm0,%zmm0
	vaesenc	%zmm31,%zmm3,%zmm3
	vaesenc	%zmm31,%zmm4,%zmm4
	vaesenc	%zmm31,%zmm5,%zmm5
	vaesenclast	%zmm30,%zmm0,%zmm0
	vaesenclast	%zmm30,%zmm3,%zmm3
	vaesenclast	%zmm30,%zmm4,%zmm4
	vaesenclast	%zmm30,%zmm5,%zmm5



	vpxorq	%zmm17,%zmm0,%zmm0
	vpxorq	%zmm19,%zmm3,%zmm3
	vpxorq	%zmm20,%zmm4,%zmm4
	vpxorq	%zmm21,%zmm5,%zmm5



	movq	%r9,%r10
	vmovdqu8	%zmm0,0(%r10,%rax,1)
	vmovdqu8	%zmm3,64(%r10,%rax,1)
	vmovdqu8	%zmm4,128(%r10,%rax,1)
	vmovdqu8	%zmm5,192(%r10,%rax,1)
	vpshufb	%zmm29,%zmm0,%zmm0
	vpshufb	%zmm29,%zmm3,%zmm3
	vpshufb	%zmm29,%zmm4,%zmm4
	vpshufb	%zmm29,%zmm5,%zmm5
	vmovdqa64	%zmm0,1280(%rsp)
	vmovdqa64	%zmm3,1344(%rsp)
	vmovdqa64	%zmm4,1408(%rsp)
	vmovdqa64	%zmm5,1472(%rsp)
	cmpb	$240,%r15b
	jae	.L_16_blocks_overflow_odgbsdskfsspqan
	vpaddd	%zmm28,%zmm2,%zmm0
	vpaddd	%zmm27,%zmm0,%zmm3
	vpaddd	%zmm27,%zmm3,%zmm4
	vpaddd	%zmm27,%zmm4,%zmm5
	jmp	.L_16_blocks_ok_odgbsdskfsspqan
.L_16_blocks_overflow_odgbsdskfsspqan:
	vpshufb	%zmm29,%zmm2,%zmm2
	vmovdqa64	ddq_add_4444(%rip),%zmm5
	vpaddd	ddq_add_1234(%rip),%zmm2,%zmm0
	vpaddd	%zmm5,%zmm0,%zmm3
	vpaddd	%zmm5,%zmm3,%zmm4
	vpaddd	%zmm5,%zmm4,%zmm5
	vpshufb	%zmm29,%zmm0,%zmm0
	vpshufb	%zmm29,%zmm3,%zmm3
	vpshufb	%zmm29,%zmm4,%zmm4
	vpshufb	%zmm29,%zmm5,%zmm5
.L_16_blocks_ok_odgbsdskfsspqan:
	vbroadcastf64x2	0(%rdi),%zmm30
	vmovdqa64	1024(%rsp),%zmm8
	vmovdqu64	256(%rsp),%zmm1




	vshufi64x2	$255,%zmm5,%zmm5,%zmm2
	addb	$16,%r15b


	vbroadcastf64x2	16(%rdi),%zmm31
	vmovdqu64	320(%rsp),%zmm18
	vmovdqa64	1088(%rsp),%zmm22







	vpxorq	%zmm30,%zmm0,%zmm0
	vpxorq	%zmm30,%zmm3,%zmm3
	vpxorq	%zmm30,%zmm4,%zmm4
	vpxorq	%zmm30,%zmm5,%zmm5
	vbroadcastf64x2	32(%rdi),%zmm30



	vpclmulqdq	$0x11,%zmm1,%zmm8,%zmm6
	vpclmulqdq	$0x00,%zmm1,%zmm8,%zmm7
	vpclmulqdq	$0x01,%zmm1,%zmm8,%zmm10
	vpclmulqdq	$0x10,%zmm1,%zmm8,%zmm11
	vmovdqu64	384(%rsp),%zmm1
	vmovdqa64	1152(%rsp),%zmm8



	vaesenc	%zmm31,%zmm0,%zmm0
	vaesenc	%zmm31,%zmm3,%zmm3
	vaesenc	%zmm31,%zmm4,%zmm4
	vaesenc	%zmm31,%zmm5,%zmm5
	vbroadcastf64x2	48(%rdi),%zmm31



	vpclmulqdq	$0x10,%zmm18,%zmm22,%zmm15
	vpclmulqdq	$0x01,%zmm18,%zmm22,%zmm16
	vpclmulqdq	$0x11,%zmm18,%zmm22,%zmm12
	vpclmulqdq	$0x00,%zmm18,%zmm22,%zmm13
	vmovdqu64	448(%rsp),%zmm18
	vmovdqa64	1216(%rsp),%zmm22



	vaesenc	%zmm30,%zmm0,%zmm0
	vaesenc	%zmm30,%zmm3,%zmm3
	vaesenc	%zmm30,%zmm4,%zmm4
	vaesenc	%zmm30,%zmm5,%zmm5
	vbroadcastf64x2	64(%rdi),%zmm30



	vpclmulqdq	$0x10,%zmm1,%zmm8,%zmm20
	vpclmulqdq	$0x01,%zmm1,%zmm8,%zmm21
	vpclmulqdq	$0x11,%zmm1,%zmm8,%zmm17
	vpclmulqdq	$0x00,%zmm1,%zmm8,%zmm19


	vaesenc	%zmm31,%zmm0,%zmm0
	vaesenc	%zmm31,%zmm3,%zmm3
	vaesenc	%zmm31,%zmm4,%zmm4
	vaesenc	%zmm31,%zmm5,%zmm5
	vbroadcastf64x2	80(%rdi),%zmm31



	vpternlogq	$0x96,%zmm17,%zmm12,%zmm6
	vpternlogq	$0x96,%zmm19,%zmm13,%zmm7
	vpternlogq	$0x96,%zmm21,%zmm16,%zmm11
	vpternlogq	$0x96,%zmm20,%zmm15,%zmm10



	vaesenc	%zmm30,%zmm0,%zmm0
	vaesenc	%zmm30,%zmm3,%zmm3
	vaesenc	%zmm30,%zmm4,%zmm4
	vaesenc	%zmm30,%zmm5,%zmm5
	vbroadcastf64x2	96(%rdi),%zmm30



	vmovdqu8	256(%rcx,%rax,1),%zmm17
	vmovdqu8	320(%rcx,%rax,1),%zmm19
	vmovdqu8	384(%rcx,%rax,1),%zmm20
	vmovdqu8	448(%rcx,%rax,1),%zmm21



	vaesenc	%zmm31,%zmm0,%zmm0
	vaesenc	%zmm31,%zmm3,%zmm3
	vaesenc	%zmm31,%zmm4,%zmm4
	vaesenc	%zmm31,%zmm5,%zmm5
	vbroadcastf64x2	112(%rdi),%zmm31



	vpclmulqdq	$0x10,%zmm18,%zmm22,%zmm15
	vpclmulqdq	$0x01,%zmm18,%zmm22,%zmm16
	vpclmulqdq	$0x11,%zmm18,%zmm22,%zmm12
	vpclmulqdq	$0x00,%zmm18,%zmm22,%zmm13


	vaesenc	%zmm30,%zmm0,%zmm0
	vaesenc	%zmm30,%zmm3,%zmm3
	vaesenc	%zmm30,%zmm4,%zmm4
	vaesenc	%zmm30,%zmm5,%zmm5
	vbroadcastf64x2	128(%rdi),%zmm30
	vpternlogq	$0x96,%zmm16,%zmm11,%zmm10
	vpternlogq	$0x96,%zmm15,%zmm10,%zmm26
	vpternlogq	$0x96,%zmm12,%zmm6,%zmm24
	vpternlogq	$0x96,%zmm13,%zmm7,%zmm25
	vaesenc	%zmm31,%zmm0,%zmm0
	vaesenc	%zmm31,%zmm3,%zmm3
	vaesenc	%zmm31,%zmm4,%zmm4
	vaesenc	%zmm31,%zmm5,%zmm5
	vbroadcastf64x2	144(%rdi),%zmm31
	vaesenc	%zmm30,%zmm0,%zmm0
	vaesenc	%zmm30,%zmm3,%zmm3
	vaesenc	%zmm30,%zmm4,%zmm4
	vaesenc	%zmm30,%zmm5,%zmm5
	vbroadcastf64x2	160(%rdi),%zmm30
	vaesenc	%zmm31,%zmm0,%zmm0
	vaesenc	%zmm31,%zmm3,%zmm3
	vaesenc	%zmm31,%zmm4,%zmm4
	vaesenc	%zmm31,%zmm5,%zmm5
	vaesenclast	%zmm30,%zmm0,%zmm0
	vaesenclast	%zmm30,%zmm3,%zmm3
	vaesenclast	%zmm30,%zmm4,%zmm4
	vaesenclast	%zmm30,%zmm5,%zmm5



	vpxorq	%zmm17,%zmm0,%zmm0
	vpxorq	%zmm19,%zmm3,%zmm3
	vpxorq	%zmm20,%zmm4,%zmm4
	vpxorq	%zmm21,%zmm5,%zmm5



	movq	%r9,%r10
	vmovdqu8	%zmm0,256(%r10,%rax,1)
	vmovdqu8	%zmm3,320(%r10,%rax,1)
	vmovdqu8	%zmm4,384(%r10,%rax,1)
	vmovdqu8	%zmm5,448(%r10,%rax,1)
	vpshufb	%zmm29,%zmm0,%zmm0
	vpshufb	%zmm29,%zmm3,%zmm3
	vpshufb	%zmm29,%zmm4,%zmm4
	vpshufb	%zmm29,%zmm5,%zmm5
	vmovdqa64	%zmm0,768(%rsp)
	vmovdqa64	%zmm3,832(%rsp)
	vmovdqa64	%zmm4,896(%rsp)
	vmovdqa64	%zmm5,960(%rsp)
	cmpb	$240,%r15b
	jae	.L_16_blocks_overflow_GmdygjCvwzrwuAc
	vpaddd	%zmm28,%zmm2,%zmm0
	vpaddd	%zmm27,%zmm0,%zmm3
	vpaddd	%zmm27,%zmm3,%zmm4
	vpaddd	%zmm27,%zmm4,%zmm5
	jmp	.L_16_blocks_ok_GmdygjCvwzrwuAc
.L_16_blocks_overflow_GmdygjCvwzrwuAc:
	vpshufb	%zmm29,%zmm2,%zmm2
	vmovdqa64	ddq_add_4444(%rip),%zmm5
	vpaddd	ddq_add_1234(%rip),%zmm2,%zmm0
	vpaddd	%zmm5,%zmm0,%zmm3
	vpaddd	%zmm5,%zmm3,%zmm4
	vpaddd	%zmm5,%zmm4,%zmm5
	vpshufb	%zmm29,%zmm0,%zmm0
	vpshufb	%zmm29,%zmm3,%zmm3
	vpshufb	%zmm29,%zmm4,%zmm4
	vpshufb	%zmm29,%zmm5,%zmm5
.L_16_blocks_ok_GmdygjCvwzrwuAc:
	vbroadcastf64x2	0(%rdi),%zmm30
	vmovdqa64	1280(%rsp),%zmm8
	vmovdqu64	512(%rsp),%zmm1




	vshufi64x2	$255,%zmm5,%zmm5,%zmm2
	addb	$16,%r15b


	vbroadcastf64x2	16(%rdi),%zmm31
	vmovdqu64	576(%rsp),%zmm18
	vmovdqa64	1344(%rsp),%zmm22







	vpxorq	%zmm30,%zmm0,%zmm0
	vpxorq	%zmm30,%zmm3,%zmm3
	vpxorq	%zmm30,%zmm4,%zmm4
	vpxorq	%zmm30,%zmm5,%zmm5
	vbroadcastf64x2	32(%rdi),%zmm30



	vpclmulqdq	$0x11,%zmm1,%zmm8,%zmm6
	vpclmulqdq	$0x00,%zmm1,%zmm8,%zmm7
	vpclmulqdq	$0x01,%zmm1,%zmm8,%zmm10
	vpclmulqdq	$0x10,%zmm1,%zmm8,%zmm11
	vmovdqu64	640(%rsp),%zmm1
	vmovdqa64	1408(%rsp),%zmm8



	vaesenc	%zmm31,%zmm0,%zmm0
	vaesenc	%zmm31,%zmm3,%zmm3
	vaesenc	%zmm31,%zmm4,%zmm4
	vaesenc	%zmm31,%zmm5,%zmm5
	vbroadcastf64x2	48(%rdi),%zmm31



	vpclmulqdq	$0x10,%zmm18,%zmm22,%zmm15
	vpclmulqdq	$0x01,%zmm18,%zmm22,%zmm16
	vpclmulqdq	$0x11,%zmm18,%zmm22,%zmm12
	vpclmulqdq	$0x00,%zmm18,%zmm22,%zmm13
	vmovdqu64	704(%rsp),%zmm18
	vmovdqa64	1472(%rsp),%zmm22



	vaesenc	%zmm30,%zmm0,%zmm0
	vaesenc	%zmm30,%zmm3,%zmm3
	vaesenc	%zmm30,%zmm4,%zmm4
	vaesenc	%zmm30,%zmm5,%zmm5
	vbroadcastf64x2	64(%rdi),%zmm30



	vpclmulqdq	$0x10,%zmm1,%zmm8,%zmm20
	vpclmulqdq	$0x01,%zmm1,%zmm8,%zmm21
	vpclmulqdq	$0x11,%zmm1,%zmm8,%zmm17
	vpclmulqdq	$0x00,%zmm1,%zmm8,%zmm19


	vaesenc	%zmm31,%zmm0,%zmm0
	vaesenc	%zmm31,%zmm3,%zmm3
	vaesenc	%zmm31,%zmm4,%zmm4
	vaesenc	%zmm31,%zmm5,%zmm5
	vbroadcastf64x2	80(%rdi),%zmm31



	vpternlogq	$0x96,%zmm17,%zmm12,%zmm6
	vpternlogq	$0x96,%zmm19,%zmm13,%zmm7
	vpternlogq	$0x96,%zmm21,%zmm16,%zmm11
	vpternlogq	$0x96,%zmm20,%zmm15,%zmm10



	vaesenc	%zmm30,%zmm0,%zmm0
	vaesenc	%zmm30,%zmm3,%zmm3
	vaesenc	%zmm30,%zmm4,%zmm4
	vaesenc	%zmm30,%zmm5,%zmm5
	vbroadcastf64x2	96(%rdi),%zmm30



	vmovdqu8	512(%rcx,%rax,1),%zmm17
	vmovdqu8	576(%rcx,%rax,1),%zmm19
	vmovdqu8	640(%rcx,%rax,1),%zmm20
	vmovdqu8	704(%rcx,%rax,1),%zmm21



	vaesenc	%zmm31,%zmm0,%zmm0
	vaesenc	%zmm31,%zmm3,%zmm3
	vaesenc	%zmm31,%zmm4,%zmm4
	vaesenc	%zmm31,%zmm5,%zmm5
	vbroadcastf64x2	112(%rdi),%zmm31



	vpclmulqdq	$0x10,%zmm18,%zmm22,%zmm15
	vpclmulqdq	$0x01,%zmm18,%zmm22,%zmm16
	vpclmulqdq	$0x11,%zmm18,%zmm22,%zmm12
	vpclmulqdq	$0x00,%zmm18,%zmm22,%zmm13


	vaesenc	%zmm30,%zmm0,%zmm0
	vaesenc	%zmm30,%zmm3,%zmm3
	vaesenc	%zmm30,%zmm4,%zmm4
	vaesenc	%zmm30,%zmm5,%zmm5
	vbroadcastf64x2	128(%rdi),%zmm30


	vpternlogq	$0x96,%zmm16,%zmm11,%zmm10
	vpternlogq	$0x96,%zmm15,%zmm26,%zmm10

	vpsrldq	$8,%zmm10,%zmm15
	vpslldq	$8,%zmm10,%zmm10

	vmovdqa64	POLY2(%rip),%xmm16
	vaesenc	%zmm31,%zmm0,%zmm0
	vaesenc	%zmm31,%zmm3,%zmm3
	vaesenc	%zmm31,%zmm4,%zmm4
	vaesenc	%zmm31,%zmm5,%zmm5
	vbroadcastf64x2	144(%rdi),%zmm31
	vpternlogq	$0x96,%zmm15,%zmm12,%zmm6
	vpxorq	%zmm24,%zmm6,%zmm6
	vpternlogq	$0x96,%zmm10,%zmm13,%zmm7
	vpxorq	%zmm25,%zmm7,%zmm7
	vaesenc	%zmm30,%zmm0,%zmm0
	vaesenc	%zmm30,%zmm3,%zmm3
	vaesenc	%zmm30,%zmm4,%zmm4
	vaesenc	%zmm30,%zmm5,%zmm5
	vbroadcastf64x2	160(%rdi),%zmm30
	vextracti64x4	$1,%zmm6,%ymm12
	vpxorq	%ymm12,%ymm6,%ymm6
	vextracti32x4	$1,%ymm6,%xmm12
	vpxorq	%xmm12,%xmm6,%xmm6
	vextracti64x4	$1,%zmm7,%ymm13
	vpxorq	%ymm13,%ymm7,%ymm7
	vextracti32x4	$1,%ymm7,%xmm13
	vpxorq	%xmm13,%xmm7,%xmm7
	vaesenc	%zmm31,%zmm0,%zmm0
	vaesenc	%zmm31,%zmm3,%zmm3
	vaesenc	%zmm31,%zmm4,%zmm4
	vaesenc	%zmm31,%zmm5,%zmm5
	vpclmulqdq	$0x01,%xmm7,%xmm16,%xmm13
	vpslldq	$8,%xmm13,%xmm13
	vpxorq	%xmm13,%xmm7,%xmm13
	vpclmulqdq	$0x00,%xmm13,%xmm16,%xmm12
	vpsrldq	$4,%xmm12,%xmm12
	vpclmulqdq	$0x10,%xmm13,%xmm16,%xmm15
	vpslldq	$4,%xmm15,%xmm15

	vpternlogq	$0x96,%xmm12,%xmm15,%xmm6
	vaesenclast	%zmm30,%zmm0,%zmm0
	vaesenclast	%zmm30,%zmm3,%zmm3
	vaesenclast	%zmm30,%zmm4,%zmm4
	vaesenclast	%zmm30,%zmm5,%zmm5



	vpxorq	%zmm17,%zmm0,%zmm0
	vpxorq	%zmm19,%zmm3,%zmm3
	vpxorq	%zmm20,%zmm4,%zmm4
	vpxorq	%zmm21,%zmm5,%zmm5



	movq	%r9,%r10
	vmovdqu8	%zmm0,512(%r10,%rax,1)
	vmovdqu8	%zmm3,576(%r10,%rax,1)
	vmovdqu8	%zmm4,640(%r10,%rax,1)
	vmovdqu8	%zmm5,704(%r10,%rax,1)
	vpshufb	%zmm29,%zmm0,%zmm0
	vpshufb	%zmm29,%zmm3,%zmm3
	vpshufb	%zmm29,%zmm4,%zmm4
	vpshufb	%zmm29,%zmm5,%zmm5
	vmovdqa64	%zmm0,1024(%rsp)
	vmovdqa64	%zmm3,1088(%rsp)
	vmovdqa64	%zmm4,1152(%rsp)
	vmovdqa64	%zmm5,1216(%rsp)
	vmovdqa64	%zmm6,%zmm14

	addq	$768,%rax
	subq	$768,%r8
	cmpq	$768,%r8
	jae	.L_encrypt_big_nblocks_azipfweEtBGedwu

.L_no_more_big_nblocks_azipfweEtBGedwu:

	cmpq	$512,%r8
	jae	.L_encrypt_32_blocks_azipfweEtBGedwu

	cmpq	$256,%r8
	jae	.L_encrypt_16_blocks_azipfweEtBGedwu
.L_encrypt_0_blocks_ghash_32_azipfweEtBGedwu:
	movl	%r8d,%r10d
	andl	$~15,%r10d
	movl	$256,%ebx
	subl	%r10d,%ebx
	vmovdqa64	768(%rsp),%zmm13
	vpxorq	%zmm14,%zmm13,%zmm13
	vmovdqu64	0(%rsp,%rbx,1),%zmm12
	vpclmulqdq	$0x11,%zmm12,%zmm13,%zmm0
	vpclmulqdq	$0x00,%zmm12,%zmm13,%zmm3
	vpclmulqdq	$0x01,%zmm12,%zmm13,%zmm4
	vpclmulqdq	$0x10,%zmm12,%zmm13,%zmm5
	vmovdqa64	832(%rsp),%zmm13
	vmovdqu64	64(%rsp,%rbx,1),%zmm12
	vpclmulqdq	$0x11,%zmm12,%zmm13,%zmm6
	vpclmulqdq	$0x00,%zmm12,%zmm13,%zmm7
	vpclmulqdq	$0x01,%zmm12,%zmm13,%zmm10
	vpclmulqdq	$0x10,%zmm12,%zmm13,%zmm11
	vpxorq	%zmm10,%zmm4,%zmm26
	vpxorq	%zmm6,%zmm0,%zmm24
	vpxorq	%zmm7,%zmm3,%zmm25
	vpternlogq	$0x96,%zmm11,%zmm5,%zmm26
	vmovdqa64	896(%rsp),%zmm13
	vmovdqu64	128(%rsp,%rbx,1),%zmm12
	vpclmulqdq	$0x11,%zmm12,%zmm13,%zmm0
	vpclmulqdq	$0x00,%zmm12,%zmm13,%zmm3
	vpclmulqdq	$0x01,%zmm12,%zmm13,%zmm4
	vpclmulqdq	$0x10,%zmm12,%zmm13,%zmm5
	vmovdqa64	960(%rsp),%zmm13
	vmovdqu64	192(%rsp,%rbx,1),%zmm12
	vpclmulqdq	$0x11,%zmm12,%zmm13,%zmm6
	vpclmulqdq	$0x00,%zmm12,%zmm13,%zmm7
	vpclmulqdq	$0x01,%zmm12,%zmm13,%zmm10
	vpclmulqdq	$0x10,%zmm12,%zmm13,%zmm11

	vpternlogq	$0x96,%zmm10,%zmm4,%zmm26
	vpternlogq	$0x96,%zmm6,%zmm0,%zmm24
	vpternlogq	$0x96,%zmm7,%zmm3,%zmm25
	vpternlogq	$0x96,%zmm11,%zmm5,%zmm26
	addl	$256,%ebx
	movl	%r8d,%r10d
	addl	$15,%r10d
	shrl	$4,%r10d
	je	.L_last_num_blocks_is_0_iFdBmvaydAEvGwl

	cmpl	$8,%r10d
	je	.L_last_num_blocks_is_8_iFdBmvaydAEvGwl
	jb	.L_last_num_blocks_is_7_1_iFdBmvaydAEvGwl


	cmpl	$12,%r10d
	je	.L_last_num_blocks_is_12_iFdBmvaydAEvGwl
	jb	.L_last_num_blocks_is_11_9_iFdBmvaydAEvGwl


	cmpl	$15,%r10d
	je	.L_last_num_blocks_is_15_iFdBmvaydAEvGwl
	ja	.L_last_num_blocks_is_16_iFdBmvaydAEvGwl
	cmpl	$14,%r10d
	je	.L_last_num_blocks_is_14_iFdBmvaydAEvGwl
	jmp	.L_last_num_blocks_is_13_iFdBmvaydAEvGwl

.L_last_num_blocks_is_11_9_iFdBmvaydAEvGwl:

	cmpl	$10,%r10d
	je	.L_last_num_blocks_is_10_iFdBmvaydAEvGwl
	ja	.L_last_num_blocks_is_11_iFdBmvaydAEvGwl
	jmp	.L_last_num_blocks_is_9_iFdBmvaydAEvGwl

.L_last_num_blocks_is_7_1_iFdBmvaydAEvGwl:
	cmpl	$4,%r10d
	je	.L_last_num_blocks_is_4_iFdBmvaydAEvGwl
	jb	.L_last_num_blocks_is_3_1_iFdBmvaydAEvGwl

	cmpl	$6,%r10d
	ja	.L_last_num_blocks_is_7_iFdBmvaydAEvGwl
	je	.L_last_num_blocks_is_6_iFdBmvaydAEvGwl
	jmp	.L_last_num_blocks_is_5_iFdBmvaydAEvGwl

.L_last_num_blocks_is_3_1_iFdBmvaydAEvGwl:

	cmpl	$2,%r10d
	ja	.L_last_num_blocks_is_3_iFdBmvaydAEvGwl
	je	.L_last_num_blocks_is_2_iFdBmvaydAEvGwl
.L_last_num_blocks_is_1_iFdBmvaydAEvGwl:
	leaq	byte64_len_to_mask_table(%rip),%r10
	movq	%r8,%r11
	kmovq	(%r10,%r11,8),%k1
	cmpl	$255,%r15d
	jae	.L_16_blocks_overflow_lwxrAEqmpswGAjy
	vpaddd	%xmm28,%xmm2,%xmm0
	jmp	.L_16_blocks_ok_lwxrAEqmpswGAjy

.L_16_blocks_overflow_lwxrAEqmpswGAjy:
	vpshufb	%zmm29,%zmm2,%zmm2
	vpaddd	ddq_add_1234(%rip),%zmm2,%zmm0
	vpshufb	%xmm29,%xmm0,%xmm0
.L_16_blocks_ok_lwxrAEqmpswGAjy:




	vbroadcastf64x2	0(%rdi),%zmm30
	vmovdqa64	1024(%rsp),%zmm8
	vmovdqu64	0(%rsp,%rbx,1),%zmm1
	vextracti32x4	$0,%zmm0,%xmm2
	vshufi64x2	$0,%zmm2,%zmm2,%zmm2


	vbroadcastf64x2	16(%rdi),%zmm31
	vmovdqu64	64(%rsp,%rbx,1),%zmm18
	vmovdqa64	1088(%rsp),%zmm22
	vpxorq	%xmm30,%xmm0,%xmm0
	vbroadcastf64x2	32(%rdi),%zmm30


	vpclmulqdq	$0x11,%zmm1,%zmm8,%zmm14
	vpclmulqdq	$0x00,%zmm1,%zmm8,%zmm7
	vpclmulqdq	$0x01,%zmm1,%zmm8,%zmm10
	vpclmulqdq	$0x10,%zmm1,%zmm8,%zmm11
	vmovdqu64	128(%rsp,%rbx,1),%zmm1
	vmovdqa64	1152(%rsp),%zmm8
	vaesenc	%xmm31,%xmm0,%xmm0
	vbroadcastf64x2	48(%rdi),%zmm31


	vpclmulqdq	$0x10,%zmm18,%zmm22,%zmm15
	vpclmulqdq	$0x01,%zmm18,%zmm22,%zmm16
	vpclmulqdq	$0x11,%zmm18,%zmm22,%zmm12
	vpclmulqdq	$0x00,%zmm18,%zmm22,%zmm13
	vmovdqu64	192(%rsp,%rbx,1),%zmm18
	vmovdqa64	1216(%rsp),%zmm22
	vaesenc	%xmm30,%xmm0,%xmm0
	vbroadcastf64x2	64(%rdi),%zmm30


	vpclmulqdq	$0x10,%zmm1,%zmm8,%zmm20
	vpclmulqdq	$0x01,%zmm1,%zmm8,%zmm21
	vpclmulqdq	$0x11,%zmm1,%zmm8,%zmm17
	vpclmulqdq	$0x00,%zmm1,%zmm8,%zmm19
	vaesenc	%xmm31,%xmm0,%xmm0
	vbroadcastf64x2	80(%rdi),%zmm31


	vpternlogq	$0x96,%zmm17,%zmm12,%zmm14
	vpternlogq	$0x96,%zmm19,%zmm13,%zmm7
	vpternlogq	$0x96,%zmm21,%zmm16,%zmm11
	vpternlogq	$0x96,%zmm20,%zmm15,%zmm10
	vaesenc	%xmm30,%xmm0,%xmm0
	vbroadcastf64x2	96(%rdi),%zmm30
	vmovdqu8	0(%rcx,%rax,1),%xmm17{%k1}{z}
	vaesenc	%xmm31,%xmm0,%xmm0
	vbroadcastf64x2	112(%rdi),%zmm31


	vpclmulqdq	$0x10,%zmm18,%zmm22,%zmm15
	vpclmulqdq	$0x01,%zmm18,%zmm22,%zmm16
	vpclmulqdq	$0x11,%zmm18,%zmm22,%zmm12
	vpclmulqdq	$0x00,%zmm18,%zmm22,%zmm13
	vaesenc	%xmm30,%xmm0,%xmm0
	vbroadcastf64x2	128(%rdi),%zmm30
	vpternlogq	$0x96,%zmm16,%zmm11,%zmm10
	vpternlogq	$0x96,%zmm12,%zmm14,%zmm24
	vpternlogq	$0x96,%zmm13,%zmm7,%zmm25
	vpternlogq	$0x96,%zmm15,%zmm10,%zmm26
	vaesenc	%xmm31,%xmm0,%xmm0
	vbroadcastf64x2	144(%rdi),%zmm31
	vaesenc	%xmm30,%xmm0,%xmm0
	vbroadcastf64x2	160(%rdi),%zmm30
	vaesenc	%xmm31,%xmm0,%xmm0
	vaesenclast	%xmm30,%xmm0,%xmm0
	vpxorq	%xmm17,%xmm0,%xmm0
	vextracti32x4	$0,%zmm0,%xmm11
	movq	%r9,%r10
	vmovdqu8	%xmm0,0(%r10,%rax,1){%k1}
	vmovdqu8	%zmm0,%zmm0{%k1}{z}
	vpshufb	%xmm29,%xmm0,%xmm17
	vextracti32x4	$0,%zmm17,%xmm7
	leaq	96(%rsi),%r10


	cmpq	$16,%r8
	jl	.L_small_initial_partial_block_xgEkrpFyEABCCDv





	subq	$16,%r8
	movl	$0,(%rdx)
	vmovdqu64	240(%r10),%xmm1
	vpclmulqdq	$0x01,%xmm1,%xmm17,%xmm4
	vpclmulqdq	$0x10,%xmm1,%xmm17,%xmm5
	vpclmulqdq	$0x11,%xmm1,%xmm17,%xmm0
	vpclmulqdq	$0x00,%xmm1,%xmm17,%xmm3
	vpxorq	%zmm26,%zmm4,%zmm4
	vpxorq	%zmm24,%zmm0,%zmm0
	vpxorq	%zmm25,%zmm3,%zmm3

	vpxorq	%zmm5,%zmm4,%zmm4
	vpsrldq	$8,%zmm4,%zmm30
	vpslldq	$8,%zmm4,%zmm31
	vpxorq	%zmm30,%zmm0,%zmm0
	vpxorq	%zmm31,%zmm3,%zmm3
	vextracti64x4	$1,%zmm0,%ymm30
	vpxorq	%ymm30,%ymm0,%ymm0
	vextracti32x4	$1,%ymm0,%xmm30
	vpxorq	%xmm30,%xmm0,%xmm0
	vextracti64x4	$1,%zmm3,%ymm31
	vpxorq	%ymm31,%ymm3,%ymm3
	vextracti32x4	$1,%ymm3,%xmm31
	vpxorq	%xmm31,%xmm3,%xmm3
	vmovdqa64	POLY2(%rip),%xmm1


	vpclmulqdq	$0x01,%xmm3,%xmm1,%xmm4
	vpslldq	$8,%xmm4,%xmm4
	vpxorq	%xmm4,%xmm3,%xmm4


	vpclmulqdq	$0x00,%xmm4,%xmm1,%xmm5
	vpsrldq	$4,%xmm5,%xmm5
	vpclmulqdq	$0x10,%xmm4,%xmm1,%xmm14
	vpslldq	$4,%xmm14,%xmm14
	vpternlogq	$0x96,%xmm0,%xmm5,%xmm14

	jmp	.L_small_initial_compute_done_xgEkrpFyEABCCDv
.L_small_initial_partial_block_xgEkrpFyEABCCDv:








	movl	%r8d,(%rdx)
	vmovdqu64	%xmm11,16(%rsi)


	vpsrldq	$8,%zmm26,%zmm0
	vpslldq	$8,%zmm26,%zmm3
	vpxorq	%zmm0,%zmm24,%zmm24
	vpxorq	%zmm3,%zmm25,%zmm25
	vextracti64x4	$1,%zmm24,%ymm0
	vpxorq	%ymm0,%ymm24,%ymm24
	vextracti32x4	$1,%ymm24,%xmm0
	vpxorq	%xmm0,%xmm24,%xmm24
	vextracti64x4	$1,%zmm25,%ymm3
	vpxorq	%ymm3,%ymm25,%ymm25
	vextracti32x4	$1,%ymm25,%xmm3
	vpxorq	%xmm3,%xmm25,%xmm25
	vmovdqa64	POLY2(%rip),%xmm0


	vpclmulqdq	$0x01,%xmm25,%xmm0,%xmm3
	vpslldq	$8,%xmm3,%xmm3
	vpxorq	%xmm3,%xmm25,%xmm3


	vpclmulqdq	$0x00,%xmm3,%xmm0,%xmm4
	vpsrldq	$4,%xmm4,%xmm4
	vpclmulqdq	$0x10,%xmm3,%xmm0,%xmm14
	vpslldq	$4,%xmm14,%xmm14
	vpternlogq	$0x96,%xmm24,%xmm4,%xmm14












	vpxorq	%xmm7,%xmm14,%xmm14

	jmp	.L_after_reduction_xgEkrpFyEABCCDv
.L_small_initial_compute_done_xgEkrpFyEABCCDv:
.L_after_reduction_xgEkrpFyEABCCDv:
	jmp	.L_last_blocks_done_iFdBmvaydAEvGwl
.L_last_num_blocks_is_2_iFdBmvaydAEvGwl:
	leaq	byte64_len_to_mask_table(%rip),%r10
	movq	%r8,%r11
	kmovq	(%r10,%r11,8),%k1
	cmpl	$254,%r15d
	jae	.L_16_blocks_overflow_gkktnkmAqEveiGf
	vpaddd	%ymm28,%ymm2,%ymm0
	jmp	.L_16_blocks_ok_gkktnkmAqEveiGf

.L_16_blocks_overflow_gkktnkmAqEveiGf:
	vpshufb	%zmm29,%zmm2,%zmm2
	vpaddd	ddq_add_1234(%rip),%zmm2,%zmm0
	vpshufb	%ymm29,%ymm0,%ymm0
.L_16_blocks_ok_gkktnkmAqEveiGf:




	vbroadcastf64x2	0(%rdi),%zmm30
	vmovdqa64	1024(%rsp),%zmm8
	vmovdqu64	0(%rsp,%rbx,1),%zmm1
	vextracti32x4	$1,%zmm0,%xmm2
	vshufi64x2	$0,%zmm2,%zmm2,%zmm2


	vbroadcastf64x2	16(%rdi),%zmm31
	vmovdqu64	64(%rsp,%rbx,1),%zmm18
	vmovdqa64	1088(%rsp),%zmm22
	vpxorq	%ymm30,%ymm0,%ymm0
	vbroadcastf64x2	32(%rdi),%zmm30


	vpclmulqdq	$0x11,%zmm1,%zmm8,%zmm14
	vpclmulqdq	$0x00,%zmm1,%zmm8,%zmm7
	vpclmulqdq	$0x01,%zmm1,%zmm8,%zmm10
	vpclmulqdq	$0x10,%zmm1,%zmm8,%zmm11
	vmovdqu64	128(%rsp,%rbx,1),%zmm1
	vmovdqa64	1152(%rsp),%zmm8
	vaesenc	%ymm31,%ymm0,%ymm0
	vbroadcastf64x2	48(%rdi),%zmm31


	vpclmulqdq	$0x10,%zmm18,%zmm22,%zmm15
	vpclmulqdq	$0x01,%zmm18,%zmm22,%zmm16
	vpclmulqdq	$0x11,%zmm18,%zmm22,%zmm12
	vpclmulqdq	$0x00,%zmm18,%zmm22,%zmm13
	vmovdqu64	192(%rsp,%rbx,1),%zmm18
	vmovdqa64	1216(%rsp),%zmm22
	vaesenc	%ymm30,%ymm0,%ymm0
	vbroadcastf64x2	64(%rdi),%zmm30


	vpclmulqdq	$0x10,%zmm1,%zmm8,%zmm20
	vpclmulqdq	$0x01,%zmm1,%zmm8,%zmm21
	vpclmulqdq	$0x11,%zmm1,%zmm8,%zmm17
	vpclmulqdq	$0x00,%zmm1,%zmm8,%zmm19
	vaesenc	%ymm31,%ymm0,%ymm0
	vbroadcastf64x2	80(%rdi),%zmm31


	vpternlogq	$0x96,%zmm17,%zmm12,%zmm14
	vpternlogq	$0x96,%zmm19,%zmm13,%zmm7
	vpternlogq	$0x96,%zmm21,%zmm16,%zmm11
	vpternlogq	$0x96,%zmm20,%zmm15,%zmm10
	vaesenc	%ymm30,%ymm0,%ymm0
	vbroadcastf64x2	96(%rdi),%zmm30
	vmovdqu8	0(%rcx,%rax,1),%ymm17{%k1}{z}
	vaesenc	%ymm31,%ymm0,%ymm0
	vbroadcastf64x2	112(%rdi),%zmm31


	vpclmulqdq	$0x10,%zmm18,%zmm22,%zmm15
	vpclmulqdq	$0x01,%zmm18,%zmm22,%zmm16
	vpclmulqdq	$0x11,%zmm18,%zmm22,%zmm12
	vpclmulqdq	$0x00,%zmm18,%zmm22,%zmm13
	vaesenc	%ymm30,%ymm0,%ymm0
	vbroadcastf64x2	128(%rdi),%zmm30
	vpternlogq	$0x96,%zmm16,%zmm11,%zmm10
	vpternlogq	$0x96,%zmm12,%zmm14,%zmm24
	vpternlogq	$0x96,%zmm13,%zmm7,%zmm25
	vpternlogq	$0x96,%zmm15,%zmm10,%zmm26
	vaesenc	%ymm31,%ymm0,%ymm0
	vbroadcastf64x2	144(%rdi),%zmm31
	vaesenc	%ymm30,%ymm0,%ymm0
	vbroadcastf64x2	160(%rdi),%zmm30
	vaesenc	%ymm31,%ymm0,%ymm0
	vaesenclast	%ymm30,%ymm0,%ymm0
	vpxorq	%ymm17,%ymm0,%ymm0
	vextracti32x4	$1,%zmm0,%xmm11
	movq	%r9,%r10
	vmovdqu8	%ymm0,0(%r10,%rax,1){%k1}
	vmovdqu8	%zmm0,%zmm0{%k1}{z}
	vpshufb	%ymm29,%ymm0,%ymm17
	vextracti32x4	$1,%zmm17,%xmm7
	leaq	96(%rsi),%r10
	subq	$16 * (2 - 1),%r8


	cmpq	$16,%r8
	jl	.L_small_initial_partial_block_axCagFzzzxcbjry





	subq	$16,%r8
	movl	$0,(%rdx)
	vmovdqu64	224(%r10),%ymm1
	vpclmulqdq	$0x01,%ymm1,%ymm17,%ymm4
	vpclmulqdq	$0x10,%ymm1,%ymm17,%ymm5
	vpclmulqdq	$0x11,%ymm1,%ymm17,%ymm0
	vpclmulqdq	$0x00,%ymm1,%ymm17,%ymm3
	vpxorq	%zmm26,%zmm4,%zmm4
	vpxorq	%zmm24,%zmm0,%zmm0
	vpxorq	%zmm25,%zmm3,%zmm3

	vpxorq	%zmm5,%zmm4,%zmm4
	vpsrldq	$8,%zmm4,%zmm30
	vpslldq	$8,%zmm4,%zmm31
	vpxorq	%zmm30,%zmm0,%zmm0
	vpxorq	%zmm31,%zmm3,%zmm3
	vextracti64x4	$1,%zmm0,%ymm30
	vpxorq	%ymm30,%ymm0,%ymm0
	vextracti32x4	$1,%ymm0,%xmm30
	vpxorq	%xmm30,%xmm0,%xmm0
	vextracti64x4	$1,%zmm3,%ymm31
	vpxorq	%ymm31,%ymm3,%ymm3
	vextracti32x4	$1,%ymm3,%xmm31
	vpxorq	%xmm31,%xmm3,%xmm3
	vmovdqa64	POLY2(%rip),%xmm1


	vpclmulqdq	$0x01,%xmm3,%xmm1,%xmm4
	vpslldq	$8,%xmm4,%xmm4
	vpxorq	%xmm4,%xmm3,%xmm4


	vpclmulqdq	$0x00,%xmm4,%xmm1,%xmm5
	vpsrldq	$4,%xmm5,%xmm5
	vpclmulqdq	$0x10,%xmm4,%xmm1,%xmm14
	vpslldq	$4,%xmm14,%xmm14
	vpternlogq	$0x96,%xmm0,%xmm5,%xmm14

	jmp	.L_small_initial_compute_done_axCagFzzzxcbjry
.L_small_initial_partial_block_axCagFzzzxcbjry:








	movl	%r8d,(%rdx)
	vmovdqu64	%xmm11,16(%rsi)
	vmovdqu64	240(%r10),%xmm1
	vpclmulqdq	$0x01,%xmm1,%xmm17,%xmm4
	vpclmulqdq	$0x10,%xmm1,%xmm17,%xmm5
	vpclmulqdq	$0x11,%xmm1,%xmm17,%xmm0
	vpclmulqdq	$0x00,%xmm1,%xmm17,%xmm3
	vpxorq	%zmm26,%zmm4,%zmm4
	vpxorq	%zmm24,%zmm0,%zmm0
	vpxorq	%zmm25,%zmm3,%zmm3

	vpxorq	%zmm5,%zmm4,%zmm4
	vpsrldq	$8,%zmm4,%zmm30
	vpslldq	$8,%zmm4,%zmm31
	vpxorq	%zmm30,%zmm0,%zmm0
	vpxorq	%zmm31,%zmm3,%zmm3
	vextracti64x4	$1,%zmm0,%ymm30
	vpxorq	%ymm30,%ymm0,%ymm0
	vextracti32x4	$1,%ymm0,%xmm30
	vpxorq	%xmm30,%xmm0,%xmm0
	vextracti64x4	$1,%zmm3,%ymm31
	vpxorq	%ymm31,%ymm3,%ymm3
	vextracti32x4	$1,%ymm3,%xmm31
	vpxorq	%xmm31,%xmm3,%xmm3
	vmovdqa64	POLY2(%rip),%xmm1


	vpclmulqdq	$0x01,%xmm3,%xmm1,%xmm4
	vpslldq	$8,%xmm4,%xmm4
	vpxorq	%xmm4,%xmm3,%xmm4


	vpclmulqdq	$0x00,%xmm4,%xmm1,%xmm5
	vpsrldq	$4,%xmm5,%xmm5
	vpclmulqdq	$0x10,%xmm4,%xmm1,%xmm14
	vpslldq	$4,%xmm14,%xmm14
	vpternlogq	$0x96,%xmm0,%xmm5,%xmm14

.L_small_initial_compute_done_axCagFzzzxcbjry:

	orq	%r8,%r8
	je	.L_after_reduction_axCagFzzzxcbjry
	vpxorq	%xmm7,%xmm14,%xmm14
.L_after_reduction_axCagFzzzxcbjry:
	jmp	.L_last_blocks_done_iFdBmvaydAEvGwl
.L_last_num_blocks_is_3_iFdBmvaydAEvGwl:
	leaq	byte64_len_to_mask_table(%rip),%r10
	movq	%r8,%r11
	kmovq	(%r10,%r11,8),%k1
	cmpl	$253,%r15d
	jae	.L_16_blocks_overflow_iCFgbjbsujzrnam
	vpaddd	%zmm28,%zmm2,%zmm0
	jmp	.L_16_blocks_ok_iCFgbjbsujzrnam

.L_16_blocks_overflow_iCFgbjbsujzrnam:
	vpshufb	%zmm29,%zmm2,%zmm2
	vpaddd	ddq_add_1234(%rip),%zmm2,%zmm0
	vpshufb	%zmm29,%zmm0,%zmm0
.L_16_blocks_ok_iCFgbjbsujzrnam:




	vbroadcastf64x2	0(%rdi),%zmm30
	vmovdqa64	1024(%rsp),%zmm8
	vmovdqu64	0(%rsp,%rbx,1),%zmm1
	vextracti32x4	$2,%zmm0,%xmm2
	vshufi64x2	$0,%zmm2,%zmm2,%zmm2


	vbroadcastf64x2	16(%rdi),%zmm31
	vmovdqu64	64(%rsp,%rbx,1),%zmm18
	vmovdqa64	1088(%rsp),%zmm22
	vpxorq	%zmm30,%zmm0,%zmm0
	vbroadcastf64x2	32(%rdi),%zmm30


	vpclmulqdq	$0x11,%zmm1,%zmm8,%zmm14
	vpclmulqdq	$0x00,%zmm1,%zmm8,%zmm7
	vpclmulqdq	$0x01,%zmm1,%zmm8,%zmm10
	vpclmulqdq	$0x10,%zmm1,%zmm8,%zmm11
	vmovdqu64	128(%rsp,%rbx,1),%zmm1
	vmovdqa64	1152(%rsp),%zmm8
	vaesenc	%zmm31,%zmm0,%zmm0
	vbroadcastf64x2	48(%rdi),%zmm31


	vpclmulqdq	$0x10,%zmm18,%zmm22,%zmm15
	vpclmulqdq	$0x01,%zmm18,%zmm22,%zmm16
	vpclmulqdq	$0x11,%zmm18,%zmm22,%zmm12
	vpclmulqdq	$0x00,%zmm18,%zmm22,%zmm13
	vmovdqu64	192(%rsp,%rbx,1),%zmm18
	vmovdqa64	1216(%rsp),%zmm22
	vaesenc	%zmm30,%zmm0,%zmm0
	vbroadcastf64x2	64(%rdi),%zmm30


	vpclmulqdq	$0x10,%zmm1,%zmm8,%zmm20
	vpclmulqdq	$0x01,%zmm1,%zmm8,%zmm21
	vpclmulqdq	$0x11,%zmm1,%zmm8,%zmm17
	vpclmulqdq	$0x00,%zmm1,%zmm8,%zmm19
	vaesenc	%zmm31,%zmm0,%zmm0
	vbroadcastf64x2	80(%rdi),%zmm31


	vpternlogq	$0x96,%zmm17,%zmm12,%zmm14
	vpternlogq	$0x96,%zmm19,%zmm13,%zmm7
	vpternlogq	$0x96,%zmm21,%zmm16,%zmm11
	vpternlogq	$0x96,%zmm20,%zmm15,%zmm10
	vaesenc	%zmm30,%zmm0,%zmm0
	vbroadcastf64x2	96(%rdi),%zmm30
	vmovdqu8	0(%rcx,%rax,1),%zmm17{%k1}{z}
	vaesenc	%zmm31,%zmm0,%zmm0
	vbroadcastf64x2	112(%rdi),%zmm31


	vpclmulqdq	$0x10,%zmm18,%zmm22,%zmm15
	vpclmulqdq	$0x01,%zmm18,%zmm22,%zmm16
	vpclmulqdq	$0x11,%zmm18,%zmm22,%zmm12
	vpclmulqdq	$0x00,%zmm18,%zmm22,%zmm13
	vaesenc	%zmm30,%zmm0,%zmm0
	vbroadcastf64x2	128(%rdi),%zmm30
	vpternlogq	$0x96,%zmm16,%zmm11,%zmm10
	vpternlogq	$0x96,%zmm12,%zmm14,%zmm24
	vpternlogq	$0x96,%zmm13,%zmm7,%zmm25
	vpternlogq	$0x96,%zmm15,%zmm10,%zmm26
	vaesenc	%zmm31,%zmm0,%zmm0
	vbroadcastf64x2	144(%rdi),%zmm31
	vaesenc	%zmm30,%zmm0,%zmm0
	vbroadcastf64x2	160(%rdi),%zmm30
	vaesenc	%zmm31,%zmm0,%zmm0
	vaesenclast	%zmm30,%zmm0,%zmm0
	vpxorq	%zmm17,%zmm0,%zmm0
	vextracti32x4	$2,%zmm0,%xmm11
	movq	%r9,%r10
	vmovdqu8	%zmm0,0(%r10,%rax,1){%k1}
	vmovdqu8	%zmm0,%zmm0{%k1}{z}
	vpshufb	%zmm29,%zmm0,%zmm17
	vextracti32x4	$2,%zmm17,%xmm7
	leaq	96(%rsi),%r10
	subq	$16 * (3 - 1),%r8


	cmpq	$16,%r8
	jl	.L_small_initial_partial_block_hsgadiidbfACkBq





	subq	$16,%r8
	movl	$0,(%rdx)
	vmovdqu64	208(%r10),%ymm1
	vinserti64x2	$2,240(%r10),%zmm1,%zmm1
	vpclmulqdq	$0x01,%zmm1,%zmm17,%zmm4
	vpclmulqdq	$0x10,%zmm1,%zmm17,%zmm5
	vpclmulqdq	$0x11,%zmm1,%zmm17,%zmm0
	vpclmulqdq	$0x00,%zmm1,%zmm17,%zmm3
	vpxorq	%zmm26,%zmm4,%zmm4
	vpxorq	%zmm24,%zmm0,%zmm0
	vpxorq	%zmm25,%zmm3,%zmm3

	vpxorq	%zmm5,%zmm4,%zmm4
	vpsrldq	$8,%zmm4,%zmm30
	vpslldq	$8,%zmm4,%zmm31
	vpxorq	%zmm30,%zmm0,%zmm0
	vpxorq	%zmm31,%zmm3,%zmm3
	vextracti64x4	$1,%zmm0,%ymm30
	vpxorq	%ymm30,%ymm0,%ymm0
	vextracti32x4	$1,%ymm0,%xmm30
	vpxorq	%xmm30,%xmm0,%xmm0
	vextracti64x4	$1,%zmm3,%ymm31
	vpxorq	%ymm31,%ymm3,%ymm3
	vextracti32x4	$1,%ymm3,%xmm31
	vpxorq	%xmm31,%xmm3,%xmm3
	vmovdqa64	POLY2(%rip),%xmm1


	vpclmulqdq	$0x01,%xmm3,%xmm1,%xmm4
	vpslldq	$8,%xmm4,%xmm4
	vpxorq	%xmm4,%xmm3,%xmm4


	vpclmulqdq	$0x00,%xmm4,%xmm1,%xmm5
	vpsrldq	$4,%xmm5,%xmm5
	vpclmulqdq	$0x10,%xmm4,%xmm1,%xmm14
	vpslldq	$4,%xmm14,%xmm14
	vpternlogq	$0x96,%xmm0,%xmm5,%xmm14

	jmp	.L_small_initial_compute_done_hsgadiidbfACkBq
.L_small_initial_partial_block_hsgadiidbfACkBq:








	movl	%r8d,(%rdx)
	vmovdqu64	%xmm11,16(%rsi)
	vmovdqu64	224(%r10),%ymm1
	vpclmulqdq	$0x01,%ymm1,%ymm17,%ymm4
	vpclmulqdq	$0x10,%ymm1,%ymm17,%ymm5
	vpclmulqdq	$0x11,%ymm1,%ymm17,%ymm0
	vpclmulqdq	$0x00,%ymm1,%ymm17,%ymm3
	vpxorq	%zmm26,%zmm4,%zmm4
	vpxorq	%zmm24,%zmm0,%zmm0
	vpxorq	%zmm25,%zmm3,%zmm3

	vpxorq	%zmm5,%zmm4,%zmm4
	vpsrldq	$8,%zmm4,%zmm30
	vpslldq	$8,%zmm4,%zmm31
	vpxorq	%zmm30,%zmm0,%zmm0
	vpxorq	%zmm31,%zmm3,%zmm3
	vextracti64x4	$1,%zmm0,%ymm30
	vpxorq	%ymm30,%ymm0,%ymm0
	vextracti32x4	$1,%ymm0,%xmm30
	vpxorq	%xmm30,%xmm0,%xmm0
	vextracti64x4	$1,%zmm3,%ymm31
	vpxorq	%ymm31,%ymm3,%ymm3
	vextracti32x4	$1,%ymm3,%xmm31
	vpxorq	%xmm31,%xmm3,%xmm3
	vmovdqa64	POLY2(%rip),%xmm1


	vpclmulqdq	$0x01,%xmm3,%xmm1,%xmm4
	vpslldq	$8,%xmm4,%xmm4
	vpxorq	%xmm4,%xmm3,%xmm4


	vpclmulqdq	$0x00,%xmm4,%xmm1,%xmm5
	vpsrldq	$4,%xmm5,%xmm5
	vpclmulqdq	$0x10,%xmm4,%xmm1,%xmm14
	vpslldq	$4,%xmm14,%xmm14
	vpternlogq	$0x96,%xmm0,%xmm5,%xmm14

.L_small_initial_compute_done_hsgadiidbfACkBq:

	orq	%r8,%r8
	je	.L_after_reduction_hsgadiidbfACkBq
	vpxorq	%xmm7,%xmm14,%xmm14
.L_after_reduction_hsgadiidbfACkBq:
	jmp	.L_last_blocks_done_iFdBmvaydAEvGwl
.L_last_num_blocks_is_4_iFdBmvaydAEvGwl:
	leaq	byte64_len_to_mask_table(%rip),%r10
	movq	%r8,%r11
	kmovq	(%r10,%r11,8),%k1
	cmpl	$252,%r15d
	jae	.L_16_blocks_overflow_uzrokkxmDyCihsD
	vpaddd	%zmm28,%zmm2,%zmm0
	jmp	.L_16_blocks_ok_uzrokkxmDyCihsD

.L_16_blocks_overflow_uzrokkxmDyCihsD:
	vpshufb	%zmm29,%zmm2,%zmm2
	vpaddd	ddq_add_1234(%rip),%zmm2,%zmm0
	vpshufb	%zmm29,%zmm0,%zmm0
.L_16_blocks_ok_uzrokkxmDyCihsD:




	vbroadcastf64x2	0(%rdi),%zmm30
	vmovdqa64	1024(%rsp),%zmm8
	vmovdqu64	0(%rsp,%rbx,1),%zmm1
	vextracti32x4	$3,%zmm0,%xmm2
	vshufi64x2	$0,%zmm2,%zmm2,%zmm2


	vbroadcastf64x2	16(%rdi),%zmm31
	vmovdqu64	64(%rsp,%rbx,1),%zmm18
	vmovdqa64	1088(%rsp),%zmm22
	vpxorq	%zmm30,%zmm0,%zmm0
	vbroadcastf64x2	32(%rdi),%zmm30


	vpclmulqdq	$0x11,%zmm1,%zmm8,%zmm14
	vpclmulqdq	$0x00,%zmm1,%zmm8,%zmm7
	vpclmulqdq	$0x01,%zmm1,%zmm8,%zmm10
	vpclmulqdq	$0x10,%zmm1,%zmm8,%zmm11
	vmovdqu64	128(%rsp,%rbx,1),%zmm1
	vmovdqa64	1152(%rsp),%zmm8
	vaesenc	%zmm31,%zmm0,%zmm0
	vbroadcastf64x2	48(%rdi),%zmm31


	vpclmulqdq	$0x10,%zmm18,%zmm22,%zmm15
	vpclmulqdq	$0x01,%zmm18,%zmm22,%zmm16
	vpclmulqdq	$0x11,%zmm18,%zmm22,%zmm12
	vpclmulqdq	$0x00,%zmm18,%zmm22,%zmm13
	vmovdqu64	192(%rsp,%rbx,1),%zmm18
	vmovdqa64	1216(%rsp),%zmm22
	vaesenc	%zmm30,%zmm0,%zmm0
	vbroadcastf64x2	64(%rdi),%zmm30


	vpclmulqdq	$0x10,%zmm1,%zmm8,%zmm20
	vpclmulqdq	$0x01,%zmm1,%zmm8,%zmm21
	vpclmulqdq	$0x11,%zmm1,%zmm8,%zmm17
	vpclmulqdq	$0x00,%zmm1,%zmm8,%zmm19
	vaesenc	%zmm31,%zmm0,%zmm0
	vbroadcastf64x2	80(%rdi),%zmm31


	vpternlogq	$0x96,%zmm17,%zmm12,%zmm14
	vpternlogq	$0x96,%zmm19,%zmm13,%zmm7
	vpternlogq	$0x96,%zmm21,%zmm16,%zmm11
	vpternlogq	$0x96,%zmm20,%zmm15,%zmm10
	vaesenc	%zmm30,%zmm0,%zmm0
	vbroadcastf64x2	96(%rdi),%zmm30
	vmovdqu8	0(%rcx,%rax,1),%zmm17{%k1}{z}
	vaesenc	%zmm31,%zmm0,%zmm0
	vbroadcastf64x2	112(%rdi),%zmm31


	vpclmulqdq	$0x10,%zmm18,%zmm22,%zmm15
	vpclmulqdq	$0x01,%zmm18,%zmm22,%zmm16
	vpclmulqdq	$0x11,%zmm18,%zmm22,%zmm12
	vpclmulqdq	$0x00,%zmm18,%zmm22,%zmm13
	vaesenc	%zmm30,%zmm0,%zmm0
	vbroadcastf64x2	128(%rdi),%zmm30
	vpternlogq	$0x96,%zmm16,%zmm11,%zmm10
	vpternlogq	$0x96,%zmm12,%zmm14,%zmm24
	vpternlogq	$0x96,%zmm13,%zmm7,%zmm25
	vpternlogq	$0x96,%zmm15,%zmm10,%zmm26
	vaesenc	%zmm31,%zmm0,%zmm0
	vbroadcastf64x2	144(%rdi),%zmm31
	vaesenc	%zmm30,%zmm0,%zmm0
	vbroadcastf64x2	160(%rdi),%zmm30
	vaesenc	%zmm31,%zmm0,%zmm0
	vaesenclast	%zmm30,%zmm0,%zmm0
	vpxorq	%zmm17,%zmm0,%zmm0
	vextracti32x4	$3,%zmm0,%xmm11
	movq	%r9,%r10
	vmovdqu8	%zmm0,0(%r10,%rax,1){%k1}
	vmovdqu8	%zmm0,%zmm0{%k1}{z}
	vpshufb	%zmm29,%zmm0,%zmm17
	vextracti32x4	$3,%zmm17,%xmm7
	leaq	96(%rsi),%r10
	subq	$16 * (4 - 1),%r8


	cmpq	$16,%r8
	jl	.L_small_initial_partial_block_xcFgBgEGobyppnx





	subq	$16,%r8
	movl	$0,(%rdx)
	vmovdqu64	192(%r10),%zmm1
	vpclmulqdq	$0x11,%zmm1,%zmm17,%zmm8
	vpclmulqdq	$0x00,%zmm1,%zmm17,%zmm22
	vpclmulqdq	$0x01,%zmm1,%zmm17,%zmm30
	vpclmulqdq	$0x10,%zmm1,%zmm17,%zmm31

	vpxorq	%zmm26,%zmm30,%zmm30
	vpxorq	%zmm24,%zmm8,%zmm8
	vpxorq	%zmm25,%zmm22,%zmm22

	vpxorq	%zmm31,%zmm30,%zmm30
	vpsrldq	$8,%zmm30,%zmm4
	vpslldq	$8,%zmm30,%zmm5
	vpxorq	%zmm4,%zmm8,%zmm0
	vpxorq	%zmm5,%zmm22,%zmm3
	vextracti64x4	$1,%zmm0,%ymm30
	vpxorq	%ymm30,%ymm0,%ymm0
	vextracti32x4	$1,%ymm0,%xmm30
	vpxorq	%xmm30,%xmm0,%xmm0
	vextracti64x4	$1,%zmm3,%ymm31
	vpxorq	%ymm31,%ymm3,%ymm3
	vextracti32x4	$1,%ymm3,%xmm31
	vpxorq	%xmm31,%xmm3,%xmm3
	vmovdqa64	POLY2(%rip),%xmm1


	vpclmulqdq	$0x01,%xmm3,%xmm1,%xmm4
	vpslldq	$8,%xmm4,%xmm4
	vpxorq	%xmm4,%xmm3,%xmm4


	vpclmulqdq	$0x00,%xmm4,%xmm1,%xmm5
	vpsrldq	$4,%xmm5,%xmm5
	vpclmulqdq	$0x10,%xmm4,%xmm1,%xmm14
	vpslldq	$4,%xmm14,%xmm14
	vpternlogq	$0x96,%xmm0,%xmm5,%xmm14

	jmp	.L_small_initial_compute_done_xcFgBgEGobyppnx
.L_small_initial_partial_block_xcFgBgEGobyppnx:








	movl	%r8d,(%rdx)
	vmovdqu64	%xmm11,16(%rsi)
	vmovdqu64	208(%r10),%ymm1
	vinserti64x2	$2,240(%r10),%zmm1,%zmm1
	vpclmulqdq	$0x01,%zmm1,%zmm17,%zmm4
	vpclmulqdq	$0x10,%zmm1,%zmm17,%zmm5
	vpclmulqdq	$0x11,%zmm1,%zmm17,%zmm0
	vpclmulqdq	$0x00,%zmm1,%zmm17,%zmm3
	vpxorq	%zmm26,%zmm4,%zmm4
	vpxorq	%zmm24,%zmm0,%zmm0
	vpxorq	%zmm25,%zmm3,%zmm3

	vpxorq	%zmm5,%zmm4,%zmm4
	vpsrldq	$8,%zmm4,%zmm30
	vpslldq	$8,%zmm4,%zmm31
	vpxorq	%zmm30,%zmm0,%zmm0
	vpxorq	%zmm31,%zmm3,%zmm3
	vextracti64x4	$1,%zmm0,%ymm30
	vpxorq	%ymm30,%ymm0,%ymm0
	vextracti32x4	$1,%ymm0,%xmm30
	vpxorq	%xmm30,%xmm0,%xmm0
	vextracti64x4	$1,%zmm3,%ymm31
	vpxorq	%ymm31,%ymm3,%ymm3
	vextracti32x4	$1,%ymm3,%xmm31
	vpxorq	%xmm31,%xmm3,%xmm3
	vmovdqa64	POLY2(%rip),%xmm1


	vpclmulqdq	$0x01,%xmm3,%xmm1,%xmm4
	vpslldq	$8,%xmm4,%xmm4
	vpxorq	%xmm4,%xmm3,%xmm4


	vpclmulqdq	$0x00,%xmm4,%xmm1,%xmm5
	vpsrldq	$4,%xmm5,%xmm5
	vpclmulqdq	$0x10,%xmm4,%xmm1,%xmm14
	vpslldq	$4,%xmm14,%xmm14
	vpternlogq	$0x96,%xmm0,%xmm5,%xmm14

.L_small_initial_compute_done_xcFgBgEGobyppnx:

	orq	%r8,%r8
	je	.L_after_reduction_xcFgBgEGobyppnx
	vpxorq	%xmm7,%xmm14,%xmm14
.L_after_reduction_xcFgBgEGobyppnx:
	jmp	.L_last_blocks_done_iFdBmvaydAEvGwl
.L_last_num_blocks_is_5_iFdBmvaydAEvGwl:
	leaq	byte64_len_to_mask_table(%rip),%r10
	movq	%r8,%r11
	subq	$64,%r11
	kmovq	(%r10,%r11,8),%k1
	cmpl	$251,%r15d
	jae	.L_16_blocks_overflow_ijgnCBtDwoobiso
	vpaddd	%zmm28,%zmm2,%zmm0
	vpaddd	%xmm27,%xmm0,%xmm3
	jmp	.L_16_blocks_ok_ijgnCBtDwoobiso

.L_16_blocks_overflow_ijgnCBtDwoobiso:
	vpshufb	%zmm29,%zmm2,%zmm2
	vpaddd	ddq_add_1234(%rip),%zmm2,%zmm0
	vmovdqa64	ddq_add_4444(%rip),%zmm5
	vpaddd	%zmm5,%zmm0,%zmm3
	vpshufb	%zmm29,%zmm0,%zmm0
	vpshufb	%xmm29,%xmm3,%xmm3
.L_16_blocks_ok_ijgnCBtDwoobiso:




	vbroadcastf64x2	0(%rdi),%zmm30
	vmovdqa64	1024(%rsp),%zmm8
	vmovdqu64	0(%rsp,%rbx,1),%zmm1
	vextracti32x4	$0,%zmm3,%xmm2
	vshufi64x2	$0,%zmm2,%zmm2,%zmm2


	vbroadcastf64x2	16(%rdi),%zmm31
	vmovdqu64	64(%rsp,%rbx,1),%zmm18
	vmovdqa64	1088(%rsp),%zmm22
	vpxorq	%zmm30,%zmm0,%zmm0
	vpxorq	%xmm30,%xmm3,%xmm3
	vbroadcastf64x2	32(%rdi),%zmm30


	vpclmulqdq	$0x11,%zmm1,%zmm8,%zmm14
	vpclmulqdq	$0x00,%zmm1,%zmm8,%zmm7
	vpclmulqdq	$0x01,%zmm1,%zmm8,%zmm10
	vpclmulqdq	$0x10,%zmm1,%zmm8,%zmm11
	vmovdqu64	128(%rsp,%rbx,1),%zmm1
	vmovdqa64	1152(%rsp),%zmm8
	vaesenc	%zmm31,%zmm0,%zmm0
	vaesenc	%xmm31,%xmm3,%xmm3
	vbroadcastf64x2	48(%rdi),%zmm31


	vpclmulqdq	$0x10,%zmm18,%zmm22,%zmm15
	vpclmulqdq	$0x01,%zmm18,%zmm22,%zmm16
	vpclmulqdq	$0x11,%zmm18,%zmm22,%zmm12
	vpclmulqdq	$0x00,%zmm18,%zmm22,%zmm13
	vmovdqu64	192(%rsp,%rbx,1),%zmm18
	vmovdqa64	1216(%rsp),%zmm22
	vaesenc	%zmm30,%zmm0,%zmm0
	vaesenc	%xmm30,%xmm3,%xmm3
	vbroadcastf64x2	64(%rdi),%zmm30


	vpclmulqdq	$0x10,%zmm1,%zmm8,%zmm20
	vpclmulqdq	$0x01,%zmm1,%zmm8,%zmm21
	vpclmulqdq	$0x11,%zmm1,%zmm8,%zmm17
	vpclmulqdq	$0x00,%zmm1,%zmm8,%zmm19
	vaesenc	%zmm31,%zmm0,%zmm0
	vaesenc	%xmm31,%xmm3,%xmm3
	vbroadcastf64x2	80(%rdi),%zmm31


	vpternlogq	$0x96,%zmm17,%zmm12,%zmm14
	vpternlogq	$0x96,%zmm19,%zmm13,%zmm7
	vpternlogq	$0x96,%zmm21,%zmm16,%zmm11
	vpternlogq	$0x96,%zmm20,%zmm15,%zmm10
	vaesenc	%zmm30,%zmm0,%zmm0
	vaesenc	%xmm30,%xmm3,%xmm3
	vbroadcastf64x2	96(%rdi),%zmm30
	vmovdqu8	0(%rcx,%rax,1),%zmm17
	vmovdqu8	64(%rcx,%rax,1),%xmm19{%k1}{z}
	vaesenc	%zmm31,%zmm0,%zmm0
	vaesenc	%xmm31,%xmm3,%xmm3
	vbroadcastf64x2	112(%rdi),%zmm31


	vpclmulqdq	$0x10,%zmm18,%zmm22,%zmm15
	vpclmulqdq	$0x01,%zmm18,%zmm22,%zmm16
	vpclmulqdq	$0x11,%zmm18,%zmm22,%zmm12
	vpclmulqdq	$0x00,%zmm18,%zmm22,%zmm13
	vaesenc	%zmm30,%zmm0,%zmm0
	vaesenc	%xmm30,%xmm3,%xmm3
	vbroadcastf64x2	128(%rdi),%zmm30
	vpternlogq	$0x96,%zmm16,%zmm11,%zmm10
	vpternlogq	$0x96,%zmm12,%zmm14,%zmm24
	vpternlogq	$0x96,%zmm13,%zmm7,%zmm25
	vpternlogq	$0x96,%zmm15,%zmm10,%zmm26
	vaesenc	%zmm31,%zmm0,%zmm0
	vaesenc	%xmm31,%xmm3,%xmm3
	vbroadcastf64x2	144(%rdi),%zmm31
	vaesenc	%zmm30,%zmm0,%zmm0
	vaesenc	%xmm30,%xmm3,%xmm3
	vbroadcastf64x2	160(%rdi),%zmm30
	vaesenc	%zmm31,%zmm0,%zmm0
	vaesenc	%xmm31,%xmm3,%xmm3
	vaesenclast	%zmm30,%zmm0,%zmm0
	vaesenclast	%xmm30,%xmm3,%xmm3
	vpxorq	%zmm17,%zmm0,%zmm0
	vpxorq	%xmm19,%xmm3,%xmm3
	vextracti32x4	$0,%zmm3,%xmm11
	movq	%r9,%r10
	vmovdqu8	%zmm0,0(%r10,%rax,1)
	vmovdqu8	%xmm3,64(%r10,%rax,1){%k1}
	vmovdqu8	%zmm3,%zmm3{%k1}{z}
	vpshufb	%zmm29,%zmm0,%zmm17
	vpshufb	%xmm29,%xmm3,%xmm19
	vextracti32x4	$0,%zmm19,%xmm7
	leaq	96(%rsi),%r10
	subq	$16 * (5 - 1),%r8


	cmpq	$16,%r8
	jl	.L_small_initial_partial_block_BfaFaznxzdsefsD





	subq	$16,%r8
	movl	$0,(%rdx)
	vmovdqu64	176(%r10),%zmm1
	vpclmulqdq	$0x11,%zmm1,%zmm17,%zmm8
	vpclmulqdq	$0x00,%zmm1,%zmm17,%zmm22
	vpclmulqdq	$0x01,%zmm1,%zmm17,%zmm30
	vpclmulqdq	$0x10,%zmm1,%zmm17,%zmm31
	vmovdqu64	240(%r10),%xmm1
	vpclmulqdq	$0x01,%xmm1,%xmm19,%xmm4
	vpclmulqdq	$0x10,%xmm1,%xmm19,%xmm5
	vpclmulqdq	$0x11,%xmm1,%xmm19,%xmm0
	vpclmulqdq	$0x00,%xmm1,%xmm19,%xmm3

	vpxorq	%zmm30,%zmm4,%zmm4
	vpternlogq	$0x96,%zmm31,%zmm26,%zmm5
	vpternlogq	$0x96,%zmm8,%zmm24,%zmm0
	vpternlogq	$0x96,%zmm22,%zmm25,%zmm3

	vpxorq	%zmm5,%zmm4,%zmm4
	vpsrldq	$8,%zmm4,%zmm30
	vpslldq	$8,%zmm4,%zmm31
	vpxorq	%zmm30,%zmm0,%zmm0
	vpxorq	%zmm31,%zmm3,%zmm3
	vextracti64x4	$1,%zmm0,%ymm30
	vpxorq	%ymm30,%ymm0,%ymm0
	vextracti32x4	$1,%ymm0,%xmm30
	vpxorq	%xmm30,%xmm0,%xmm0
	vextracti64x4	$1,%zmm3,%ymm31
	vpxorq	%ymm31,%ymm3,%ymm3
	vextracti32x4	$1,%ymm3,%xmm31
	vpxorq	%xmm31,%xmm3,%xmm3
	vmovdqa64	POLY2(%rip),%xmm1


	vpclmulqdq	$0x01,%xmm3,%xmm1,%xmm4
	vpslldq	$8,%xmm4,%xmm4
	vpxorq	%xmm4,%xmm3,%xmm4


	vpclmulqdq	$0x00,%xmm4,%xmm1,%xmm5
	vpsrldq	$4,%xmm5,%xmm5
	vpclmulqdq	$0x10,%xmm4,%xmm1,%xmm14
	vpslldq	$4,%xmm14,%xmm14
	vpternlogq	$0x96,%xmm0,%xmm5,%xmm14

	jmp	.L_small_initial_compute_done_BfaFaznxzdsefsD
.L_small_initial_partial_block_BfaFaznxzdsefsD:








	movl	%r8d,(%rdx)
	vmovdqu64	%xmm11,16(%rsi)
	vmovdqu64	192(%r10),%zmm1
	vpclmulqdq	$0x11,%zmm1,%zmm17,%zmm8
	vpclmulqdq	$0x00,%zmm1,%zmm17,%zmm22
	vpclmulqdq	$0x01,%zmm1,%zmm17,%zmm30
	vpclmulqdq	$0x10,%zmm1,%zmm17,%zmm31

	vpxorq	%zmm26,%zmm30,%zmm30
	vpxorq	%zmm24,%zmm8,%zmm8
	vpxorq	%zmm25,%zmm22,%zmm22

	vpxorq	%zmm31,%zmm30,%zmm30
	vpsrldq	$8,%zmm30,%zmm4
	vpslldq	$8,%zmm30,%zmm5
	vpxorq	%zmm4,%zmm8,%zmm0
	vpxorq	%zmm5,%zmm22,%zmm3
	vextracti64x4	$1,%zmm0,%ymm30
	vpxorq	%ymm30,%ymm0,%ymm0
	vextracti32x4	$1,%ymm0,%xmm30
	vpxorq	%xmm30,%xmm0,%xmm0
	vextracti64x4	$1,%zmm3,%ymm31
	vpxorq	%ymm31,%ymm3,%ymm3
	vextracti32x4	$1,%ymm3,%xmm31
	vpxorq	%xmm31,%xmm3,%xmm3
	vmovdqa64	POLY2(%rip),%xmm1


	vpclmulqdq	$0x01,%xmm3,%xmm1,%xmm4
	vpslldq	$8,%xmm4,%xmm4
	vpxorq	%xmm4,%xmm3,%xmm4


	vpclmulqdq	$0x00,%xmm4,%xmm1,%xmm5
	vpsrldq	$4,%xmm5,%xmm5
	vpclmulqdq	$0x10,%xmm4,%xmm1,%xmm14
	vpslldq	$4,%xmm14,%xmm14
	vpternlogq	$0x96,%xmm0,%xmm5,%xmm14

.L_small_initial_compute_done_BfaFaznxzdsefsD:

	orq	%r8,%r8
	je	.L_after_reduction_BfaFaznxzdsefsD
	vpxorq	%xmm7,%xmm14,%xmm14
.L_after_reduction_BfaFaznxzdsefsD:
	jmp	.L_last_blocks_done_iFdBmvaydAEvGwl
.L_last_num_blocks_is_6_iFdBmvaydAEvGwl:
	leaq	byte64_len_to_mask_table(%rip),%r10
	movq	%r8,%r11
	subq	$64,%r11
	kmovq	(%r10,%r11,8),%k1
	cmpl	$250,%r15d
	jae	.L_16_blocks_overflow_irFnonxelimDFgA
	vpaddd	%zmm28,%zmm2,%zmm0
	vpaddd	%ymm27,%ymm0,%ymm3
	jmp	.L_16_blocks_ok_irFnonxelimDFgA

.L_16_blocks_overflow_irFnonxelimDFgA:
	vpshufb	%zmm29,%zmm2,%zmm2
	vpaddd	ddq_add_1234(%rip),%zmm2,%zmm0
	vmovdqa64	ddq_add_4444(%rip),%zmm5
	vpaddd	%zmm5,%zmm0,%zmm3
	vpshufb	%zmm29,%zmm0,%zmm0
	vpshufb	%ymm29,%ymm3,%ymm3
.L_16_blocks_ok_irFnonxelimDFgA:




	vbroadcastf64x2	0(%rdi),%zmm30
	vmovdqa64	1024(%rsp),%zmm8
	vmovdqu64	0(%rsp,%rbx,1),%zmm1
	vextracti32x4	$1,%zmm3,%xmm2
	vshufi64x2	$0,%zmm2,%zmm2,%zmm2


	vbroadcastf64x2	16(%rdi),%zmm31
	vmovdqu64	64(%rsp,%rbx,1),%zmm18
	vmovdqa64	1088(%rsp),%zmm22
	vpxorq	%zmm30,%zmm0,%zmm0
	vpxorq	%ymm30,%ymm3,%ymm3
	vbroadcastf64x2	32(%rdi),%zmm30


	vpclmulqdq	$0x11,%zmm1,%zmm8,%zmm14
	vpclmulqdq	$0x00,%zmm1,%zmm8,%zmm7
	vpclmulqdq	$0x01,%zmm1,%zmm8,%zmm10
	vpclmulqdq	$0x10,%zmm1,%zmm8,%zmm11
	vmovdqu64	128(%rsp,%rbx,1),%zmm1
	vmovdqa64	1152(%rsp),%zmm8
	vaesenc	%zmm31,%zmm0,%zmm0
	vaesenc	%ymm31,%ymm3,%ymm3
	vbroadcastf64x2	48(%rdi),%zmm31


	vpclmulqdq	$0x10,%zmm18,%zmm22,%zmm15
	vpclmulqdq	$0x01,%zmm18,%zmm22,%zmm16
	vpclmulqdq	$0x11,%zmm18,%zmm22,%zmm12
	vpclmulqdq	$0x00,%zmm18,%zmm22,%zmm13
	vmovdqu64	192(%rsp,%rbx,1),%zmm18
	vmovdqa64	1216(%rsp),%zmm22
	vaesenc	%zmm30,%zmm0,%zmm0
	vaesenc	%ymm30,%ymm3,%ymm3
	vbroadcastf64x2	64(%rdi),%zmm30


	vpclmulqdq	$0x10,%zmm1,%zmm8,%zmm20
	vpclmulqdq	$0x01,%zmm1,%zmm8,%zmm21
	vpclmulqdq	$0x11,%zmm1,%zmm8,%zmm17
	vpclmulqdq	$0x00,%zmm1,%zmm8,%zmm19
	vaesenc	%zmm31,%zmm0,%zmm0
	vaesenc	%ymm31,%ymm3,%ymm3
	vbroadcastf64x2	80(%rdi),%zmm31


	vpternlogq	$0x96,%zmm17,%zmm12,%zmm14
	vpternlogq	$0x96,%zmm19,%zmm13,%zmm7
	vpternlogq	$0x96,%zmm21,%zmm16,%zmm11
	vpternlogq	$0x96,%zmm20,%zmm15,%zmm10
	vaesenc	%zmm30,%zmm0,%zmm0
	vaesenc	%ymm30,%ymm3,%ymm3
	vbroadcastf64x2	96(%rdi),%zmm30
	vmovdqu8	0(%rcx,%rax,1),%zmm17
	vmovdqu8	64(%rcx,%rax,1),%ymm19{%k1}{z}
	vaesenc	%zmm31,%zmm0,%zmm0
	vaesenc	%ymm31,%ymm3,%ymm3
	vbroadcastf64x2	112(%rdi),%zmm31


	vpclmulqdq	$0x10,%zmm18,%zmm22,%zmm15
	vpclmulqdq	$0x01,%zmm18,%zmm22,%zmm16
	vpclmulqdq	$0x11,%zmm18,%zmm22,%zmm12
	vpclmulqdq	$0x00,%zmm18,%zmm22,%zmm13
	vaesenc	%zmm30,%zmm0,%zmm0
	vaesenc	%ymm30,%ymm3,%ymm3
	vbroadcastf64x2	128(%rdi),%zmm30
	vpternlogq	$0x96,%zmm16,%zmm11,%zmm10
	vpternlogq	$0x96,%zmm12,%zmm14,%zmm24
	vpternlogq	$0x96,%zmm13,%zmm7,%zmm25
	vpternlogq	$0x96,%zmm15,%zmm10,%zmm26
	vaesenc	%zmm31,%zmm0,%zmm0
	vaesenc	%ymm31,%ymm3,%ymm3
	vbroadcastf64x2	144(%rdi),%zmm31
	vaesenc	%zmm30,%zmm0,%zmm0
	vaesenc	%ymm30,%ymm3,%ymm3
	vbroadcastf64x2	160(%rdi),%zmm30
	vaesenc	%zmm31,%zmm0,%zmm0
	vaesenc	%ymm31,%ymm3,%ymm3
	vaesenclast	%zmm30,%zmm0,%zmm0
	vaesenclast	%ymm30,%ymm3,%ymm3
	vpxorq	%zmm17,%zmm0,%zmm0
	vpxorq	%ymm19,%ymm3,%ymm3
	vextracti32x4	$1,%zmm3,%xmm11
	movq	%r9,%r10
	vmovdqu8	%zmm0,0(%r10,%rax,1)
	vmovdqu8	%ymm3,64(%r10,%rax,1){%k1}
	vmovdqu8	%zmm3,%zmm3{%k1}{z}
	vpshufb	%zmm29,%zmm0,%zmm17
	vpshufb	%ymm29,%ymm3,%ymm19
	vextracti32x4	$1,%zmm19,%xmm7
	leaq	96(%rsi),%r10
	subq	$16 * (6 - 1),%r8


	cmpq	$16,%r8
	jl	.L_small_initial_partial_block_EcngdrxxBfjDrbf





	subq	$16,%r8
	movl	$0,(%rdx)
	vmovdqu64	160(%r10),%zmm1
	vpclmulqdq	$0x11,%zmm1,%zmm17,%zmm8
	vpclmulqdq	$0x00,%zmm1,%zmm17,%zmm22
	vpclmulqdq	$0x01,%zmm1,%zmm17,%zmm30
	vpclmulqdq	$0x10,%zmm1,%zmm17,%zmm31
	vmovdqu64	224(%r10),%ymm1
	vpclmulqdq	$0x01,%ymm1,%ymm19,%ymm4
	vpclmulqdq	$0x10,%ymm1,%ymm19,%ymm5
	vpclmulqdq	$0x11,%ymm1,%ymm19,%ymm0
	vpclmulqdq	$0x00,%ymm1,%ymm19,%ymm3

	vpxorq	%zmm30,%zmm4,%zmm4
	vpternlogq	$0x96,%zmm31,%zmm26,%zmm5
	vpternlogq	$0x96,%zmm8,%zmm24,%zmm0
	vpternlogq	$0x96,%zmm22,%zmm25,%zmm3

	vpxorq	%zmm5,%zmm4,%zmm4
	vpsrldq	$8,%zmm4,%zmm30
	vpslldq	$8,%zmm4,%zmm31
	vpxorq	%zmm30,%zmm0,%zmm0
	vpxorq	%zmm31,%zmm3,%zmm3
	vextracti64x4	$1,%zmm0,%ymm30
	vpxorq	%ymm30,%ymm0,%ymm0
	vextracti32x4	$1,%ymm0,%xmm30
	vpxorq	%xmm30,%xmm0,%xmm0
	vextracti64x4	$1,%zmm3,%ymm31
	vpxorq	%ymm31,%ymm3,%ymm3
	vextracti32x4	$1,%ymm3,%xmm31
	vpxorq	%xmm31,%xmm3,%xmm3
	vmovdqa64	POLY2(%rip),%xmm1


	vpclmulqdq	$0x01,%xmm3,%xmm1,%xmm4
	vpslldq	$8,%xmm4,%xmm4
	vpxorq	%xmm4,%xmm3,%xmm4


	vpclmulqdq	$0x00,%xmm4,%xmm1,%xmm5
	vpsrldq	$4,%xmm5,%xmm5
	vpclmulqdq	$0x10,%xmm4,%xmm1,%xmm14
	vpslldq	$4,%xmm14,%xmm14
	vpternlogq	$0x96,%xmm0,%xmm5,%xmm14

	jmp	.L_small_initial_compute_done_EcngdrxxBfjDrbf
.L_small_initial_partial_block_EcngdrxxBfjDrbf:








	movl	%r8d,(%rdx)
	vmovdqu64	%xmm11,16(%rsi)
	vmovdqu64	176(%r10),%zmm1
	vpclmulqdq	$0x11,%zmm1,%zmm17,%zmm8
	vpclmulqdq	$0x00,%zmm1,%zmm17,%zmm22
	vpclmulqdq	$0x01,%zmm1,%zmm17,%zmm30
	vpclmulqdq	$0x10,%zmm1,%zmm17,%zmm31
	vmovdqu64	240(%r10),%xmm1
	vpclmulqdq	$0x01,%xmm1,%xmm19,%xmm4
	vpclmulqdq	$0x10,%xmm1,%xmm19,%xmm5
	vpclmulqdq	$0x11,%xmm1,%xmm19,%xmm0
	vpclmulqdq	$0x00,%xmm1,%xmm19,%xmm3

	vpxorq	%zmm30,%zmm4,%zmm4
	vpternlogq	$0x96,%zmm31,%zmm26,%zmm5
	vpternlogq	$0x96,%zmm8,%zmm24,%zmm0
	vpternlogq	$0x96,%zmm22,%zmm25,%zmm3

	vpxorq	%zmm5,%zmm4,%zmm4
	vpsrldq	$8,%zmm4,%zmm30
	vpslldq	$8,%zmm4,%zmm31
	vpxorq	%zmm30,%zmm0,%zmm0
	vpxorq	%zmm31,%zmm3,%zmm3
	vextracti64x4	$1,%zmm0,%ymm30
	vpxorq	%ymm30,%ymm0,%ymm0
	vextracti32x4	$1,%ymm0,%xmm30
	vpxorq	%xmm30,%xmm0,%xmm0
	vextracti64x4	$1,%zmm3,%ymm31
	vpxorq	%ymm31,%ymm3,%ymm3
	vextracti32x4	$1,%ymm3,%xmm31
	vpxorq	%xmm31,%xmm3,%xmm3
	vmovdqa64	POLY2(%rip),%xmm1


	vpclmulqdq	$0x01,%xmm3,%xmm1,%xmm4
	vpslldq	$8,%xmm4,%xmm4
	vpxorq	%xmm4,%xmm3,%xmm4


	vpclmulqdq	$0x00,%xmm4,%xmm1,%xmm5
	vpsrldq	$4,%xmm5,%xmm5
	vpclmulqdq	$0x10,%xmm4,%xmm1,%xmm14
	vpslldq	$4,%xmm14,%xmm14
	vpternlogq	$0x96,%xmm0,%xmm5,%xmm14

.L_small_initial_compute_done_EcngdrxxBfjDrbf:

	orq	%r8,%r8
	je	.L_after_reduction_EcngdrxxBfjDrbf
	vpxorq	%xmm7,%xmm14,%xmm14
.L_after_reduction_EcngdrxxBfjDrbf:
	jmp	.L_last_blocks_done_iFdBmvaydAEvGwl
.L_last_num_blocks_is_7_iFdBmvaydAEvGwl:
	leaq	byte64_len_to_mask_table(%rip),%r10
	movq	%r8,%r11
	subq	$64,%r11
	kmovq	(%r10,%r11,8),%k1
	cmpl	$249,%r15d
	jae	.L_16_blocks_overflow_dCntbewuqztlqFq
	vpaddd	%zmm28,%zmm2,%zmm0
	vpaddd	%zmm27,%zmm0,%zmm3
	jmp	.L_16_blocks_ok_dCntbewuqztlqFq

.L_16_blocks_overflow_dCntbewuqztlqFq:
	vpshufb	%zmm29,%zmm2,%zmm2
	vpaddd	ddq_add_1234(%rip),%zmm2,%zmm0
	vmovdqa64	ddq_add_4444(%rip),%zmm5
	vpaddd	%zmm5,%zmm0,%zmm3
	vpshufb	%zmm29,%zmm0,%zmm0
	vpshufb	%zmm29,%zmm3,%zmm3
.L_16_blocks_ok_dCntbewuqztlqFq:




	vbroadcastf64x2	0(%rdi),%zmm30
	vmovdqa64	1024(%rsp),%zmm8
	vmovdqu64	0(%rsp,%rbx,1),%zmm1
	vextracti32x4	$2,%zmm3,%xmm2
	vshufi64x2	$0,%zmm2,%zmm2,%zmm2


	vbroadcastf64x2	16(%rdi),%zmm31
	vmovdqu64	64(%rsp,%rbx,1),%zmm18
	vmovdqa64	1088(%rsp),%zmm22
	vpxorq	%zmm30,%zmm0,%zmm0
	vpxorq	%zmm30,%zmm3,%zmm3
	vbroadcastf64x2	32(%rdi),%zmm30


	vpclmulqdq	$0x11,%zmm1,%zmm8,%zmm14
	vpclmulqdq	$0x00,%zmm1,%zmm8,%zmm7
	vpclmulqdq	$0x01,%zmm1,%zmm8,%zmm10
	vpclmulqdq	$0x10,%zmm1,%zmm8,%zmm11
	vmovdqu64	128(%rsp,%rbx,1),%zmm1
	vmovdqa64	1152(%rsp),%zmm8
	vaesenc	%zmm31,%zmm0,%zmm0
	vaesenc	%zmm31,%zmm3,%zmm3
	vbroadcastf64x2	48(%rdi),%zmm31


	vpclmulqdq	$0x10,%zmm18,%zmm22,%zmm15
	vpclmulqdq	$0x01,%zmm18,%zmm22,%zmm16
	vpclmulqdq	$0x11,%zmm18,%zmm22,%zmm12
	vpclmulqdq	$0x00,%zmm18,%zmm22,%zmm13
	vmovdqu64	192(%rsp,%rbx,1),%zmm18
	vmovdqa64	1216(%rsp),%zmm22
	vaesenc	%zmm30,%zmm0,%zmm0
	vaesenc	%zmm30,%zmm3,%zmm3
	vbroadcastf64x2	64(%rdi),%zmm30


	vpclmulqdq	$0x10,%zmm1,%zmm8,%zmm20
	vpclmulqdq	$0x01,%zmm1,%zmm8,%zmm21
	vpclmulqdq	$0x11,%zmm1,%zmm8,%zmm17
	vpclmulqdq	$0x00,%zmm1,%zmm8,%zmm19
	vaesenc	%zmm31,%zmm0,%zmm0
	vaesenc	%zmm31,%zmm3,%zmm3
	vbroadcastf64x2	80(%rdi),%zmm31


	vpternlogq	$0x96,%zmm17,%zmm12,%zmm14
	vpternlogq	$0x96,%zmm19,%zmm13,%zmm7
	vpternlogq	$0x96,%zmm21,%zmm16,%zmm11
	vpternlogq	$0x96,%zmm20,%zmm15,%zmm10
	vaesenc	%zmm30,%zmm0,%zmm0
	vaesenc	%zmm30,%zmm3,%zmm3
	vbroadcastf64x2	96(%rdi),%zmm30
	vmovdqu8	0(%rcx,%rax,1),%zmm17
	vmovdqu8	64(%rcx,%rax,1),%zmm19{%k1}{z}
	vaesenc	%zmm31,%zmm0,%zmm0
	vaesenc	%zmm31,%zmm3,%zmm3
	vbroadcastf64x2	112(%rdi),%zmm31


	vpclmulqdq	$0x10,%zmm18,%zmm22,%zmm15
	vpclmulqdq	$0x01,%zmm18,%zmm22,%zmm16
	vpclmulqdq	$0x11,%zmm18,%zmm22,%zmm12
	vpclmulqdq	$0x00,%zmm18,%zmm22,%zmm13
	vaesenc	%zmm30,%zmm0,%zmm0
	vaesenc	%zmm30,%zmm3,%zmm3
	vbroadcastf64x2	128(%rdi),%zmm30
	vpternlogq	$0x96,%zmm16,%zmm11,%zmm10
	vpternlogq	$0x96,%zmm12,%zmm14,%zmm24
	vpternlogq	$0x96,%zmm13,%zmm7,%zmm25
	vpternlogq	$0x96,%zmm15,%zmm10,%zmm26
	vaesenc	%zmm31,%zmm0,%zmm0
	vaesenc	%zmm31,%zmm3,%zmm3
	vbroadcastf64x2	144(%rdi),%zmm31
	vaesenc	%zmm30,%zmm0,%zmm0
	vaesenc	%zmm30,%zmm3,%zmm3
	vbroadcastf64x2	160(%rdi),%zmm30
	vaesenc	%zmm31,%zmm0,%zmm0
	vaesenc	%zmm31,%zmm3,%zmm3
	vaesenclast	%zmm30,%zmm0,%zmm0
	vaesenclast	%zmm30,%zmm3,%zmm3
	vpxorq	%zmm17,%zmm0,%zmm0
	vpxorq	%zmm19,%zmm3,%zmm3
	vextracti32x4	$2,%zmm3,%xmm11
	movq	%r9,%r10
	vmovdqu8	%zmm0,0(%r10,%rax,1)
	vmovdqu8	%zmm3,64(%r10,%rax,1){%k1}
	vmovdqu8	%zmm3,%zmm3{%k1}{z}
	vpshufb	%zmm29,%zmm0,%zmm17
	vpshufb	%zmm29,%zmm3,%zmm19
	vextracti32x4	$2,%zmm19,%xmm7
	leaq	96(%rsi),%r10
	subq	$16 * (7 - 1),%r8


	cmpq	$16,%r8
	jl	.L_small_initial_partial_block_uzAqfEvcFAxoqax





	subq	$16,%r8
	movl	$0,(%rdx)
	vmovdqu64	144(%r10),%zmm1
	vpclmulqdq	$0x11,%zmm1,%zmm17,%zmm8
	vpclmulqdq	$0x00,%zmm1,%zmm17,%zmm22
	vpclmulqdq	$0x01,%zmm1,%zmm17,%zmm30
	vpclmulqdq	$0x10,%zmm1,%zmm17,%zmm31
	vmovdqu64	208(%r10),%ymm1
	vinserti64x2	$2,240(%r10),%zmm1,%zmm1
	vpclmulqdq	$0x01,%zmm1,%zmm19,%zmm4
	vpclmulqdq	$0x10,%zmm1,%zmm19,%zmm5
	vpclmulqdq	$0x11,%zmm1,%zmm19,%zmm0
	vpclmulqdq	$0x00,%zmm1,%zmm19,%zmm3

	vpxorq	%zmm30,%zmm4,%zmm4
	vpternlogq	$0x96,%zmm31,%zmm26,%zmm5
	vpternlogq	$0x96,%zmm8,%zmm24,%zmm0
	vpternlogq	$0x96,%zmm22,%zmm25,%zmm3

	vpxorq	%zmm5,%zmm4,%zmm4
	vpsrldq	$8,%zmm4,%zmm30
	vpslldq	$8,%zmm4,%zmm31
	vpxorq	%zmm30,%zmm0,%zmm0
	vpxorq	%zmm31,%zmm3,%zmm3
	vextracti64x4	$1,%zmm0,%ymm30
	vpxorq	%ymm30,%ymm0,%ymm0
	vextracti32x4	$1,%ymm0,%xmm30
	vpxorq	%xmm30,%xmm0,%xmm0
	vextracti64x4	$1,%zmm3,%ymm31
	vpxorq	%ymm31,%ymm3,%ymm3
	vextracti32x4	$1,%ymm3,%xmm31
	vpxorq	%xmm31,%xmm3,%xmm3
	vmovdqa64	POLY2(%rip),%xmm1


	vpclmulqdq	$0x01,%xmm3,%xmm1,%xmm4
	vpslldq	$8,%xmm4,%xmm4
	vpxorq	%xmm4,%xmm3,%xmm4


	vpclmulqdq	$0x00,%xmm4,%xmm1,%xmm5
	vpsrldq	$4,%xmm5,%xmm5
	vpclmulqdq	$0x10,%xmm4,%xmm1,%xmm14
	vpslldq	$4,%xmm14,%xmm14
	vpternlogq	$0x96,%xmm0,%xmm5,%xmm14

	jmp	.L_small_initial_compute_done_uzAqfEvcFAxoqax
.L_small_initial_partial_block_uzAqfEvcFAxoqax:








	movl	%r8d,(%rdx)
	vmovdqu64	%xmm11,16(%rsi)
	vmovdqu64	160(%r10),%zmm1
	vpclmulqdq	$0x11,%zmm1,%zmm17,%zmm8
	vpclmulqdq	$0x00,%zmm1,%zmm17,%zmm22
	vpclmulqdq	$0x01,%zmm1,%zmm17,%zmm30
	vpclmulqdq	$0x10,%zmm1,%zmm17,%zmm31
	vmovdqu64	224(%r10),%ymm1
	vpclmulqdq	$0x01,%ymm1,%ymm19,%ymm4
	vpclmulqdq	$0x10,%ymm1,%ymm19,%ymm5
	vpclmulqdq	$0x11,%ymm1,%ymm19,%ymm0
	vpclmulqdq	$0x00,%ymm1,%ymm19,%ymm3

	vpxorq	%zmm30,%zmm4,%zmm4
	vpternlogq	$0x96,%zmm31,%zmm26,%zmm5
	vpternlogq	$0x96,%zmm8,%zmm24,%zmm0
	vpternlogq	$0x96,%zmm22,%zmm25,%zmm3

	vpxorq	%zmm5,%zmm4,%zmm4
	vpsrldq	$8,%zmm4,%zmm30
	vpslldq	$8,%zmm4,%zmm31
	vpxorq	%zmm30,%zmm0,%zmm0
	vpxorq	%zmm31,%zmm3,%zmm3
	vextracti64x4	$1,%zmm0,%ymm30
	vpxorq	%ymm30,%ymm0,%ymm0
	vextracti32x4	$1,%ymm0,%xmm30
	vpxorq	%xmm30,%xmm0,%xmm0
	vextracti64x4	$1,%zmm3,%ymm31
	vpxorq	%ymm31,%ymm3,%ymm3
	vextracti32x4	$1,%ymm3,%xmm31
	vpxorq	%xmm31,%xmm3,%xmm3
	vmovdqa64	POLY2(%rip),%xmm1


	vpclmulqdq	$0x01,%xmm3,%xmm1,%xmm4
	vpslldq	$8,%xmm4,%xmm4
	vpxorq	%xmm4,%xmm3,%xmm4


	vpclmulqdq	$0x00,%xmm4,%xmm1,%xmm5
	vpsrldq	$4,%xmm5,%xmm5
	vpclmulqdq	$0x10,%xmm4,%xmm1,%xmm14
	vpslldq	$4,%xmm14,%xmm14
	vpternlogq	$0x96,%xmm0,%xmm5,%xmm14

.L_small_initial_compute_done_uzAqfEvcFAxoqax:

	orq	%r8,%r8
	je	.L_after_reduction_uzAqfEvcFAxoqax
	vpxorq	%xmm7,%xmm14,%xmm14
.L_after_reduction_uzAqfEvcFAxoqax:
	jmp	.L_last_blocks_done_iFdBmvaydAEvGwl
.L_last_num_blocks_is_8_iFdBmvaydAEvGwl:
	leaq	byte64_len_to_mask_table(%rip),%r10
	movq	%r8,%r11
	subq	$64,%r11
	kmovq	(%r10,%r11,8),%k1
	cmpl	$248,%r15d
	jae	.L_16_blocks_overflow_snxvonwyaytvcwG
	vpaddd	%zmm28,%zmm2,%zmm0
	vpaddd	%zmm27,%zmm0,%zmm3
	jmp	.L_16_blocks_ok_snxvonwyaytvcwG

.L_16_blocks_overflow_snxvonwyaytvcwG:
	vpshufb	%zmm29,%zmm2,%zmm2
	vpaddd	ddq_add_1234(%rip),%zmm2,%zmm0
	vmovdqa64	ddq_add_4444(%rip),%zmm5
	vpaddd	%zmm5,%zmm0,%zmm3
	vpshufb	%zmm29,%zmm0,%zmm0
	vpshufb	%zmm29,%zmm3,%zmm3
.L_16_blocks_ok_snxvonwyaytvcwG:




	vbroadcastf64x2	0(%rdi),%zmm30
	vmovdqa64	1024(%rsp),%zmm8
	vmovdqu64	0(%rsp,%rbx,1),%zmm1
	vextracti32x4	$3,%zmm3,%xmm2
	vshufi64x2	$0,%zmm2,%zmm2,%zmm2


	vbroadcastf64x2	16(%rdi),%zmm31
	vmovdqu64	64(%rsp,%rbx,1),%zmm18
	vmovdqa64	1088(%rsp),%zmm22
	vpxorq	%zmm30,%zmm0,%zmm0
	vpxorq	%zmm30,%zmm3,%zmm3
	vbroadcastf64x2	32(%rdi),%zmm30


	vpclmulqdq	$0x11,%zmm1,%zmm8,%zmm14
	vpclmulqdq	$0x00,%zmm1,%zmm8,%zmm7
	vpclmulqdq	$0x01,%zmm1,%zmm8,%zmm10
	vpclmulqdq	$0x10,%zmm1,%zmm8,%zmm11
	vmovdqu64	128(%rsp,%rbx,1),%zmm1
	vmovdqa64	1152(%rsp),%zmm8
	vaesenc	%zmm31,%zmm0,%zmm0
	vaesenc	%zmm31,%zmm3,%zmm3
	vbroadcastf64x2	48(%rdi),%zmm31


	vpclmulqdq	$0x10,%zmm18,%zmm22,%zmm15
	vpclmulqdq	$0x01,%zmm18,%zmm22,%zmm16
	vpclmulqdq	$0x11,%zmm18,%zmm22,%zmm12
	vpclmulqdq	$0x00,%zmm18,%zmm22,%zmm13
	vmovdqu64	192(%rsp,%rbx,1),%zmm18
	vmovdqa64	1216(%rsp),%zmm22
	vaesenc	%zmm30,%zmm0,%zmm0
	vaesenc	%zmm30,%zmm3,%zmm3
	vbroadcastf64x2	64(%rdi),%zmm30


	vpclmulqdq	$0x10,%zmm1,%zmm8,%zmm20
	vpclmulqdq	$0x01,%zmm1,%zmm8,%zmm21
	vpclmulqdq	$0x11,%zmm1,%zmm8,%zmm17
	vpclmulqdq	$0x00,%zmm1,%zmm8,%zmm19
	vaesenc	%zmm31,%zmm0,%zmm0
	vaesenc	%zmm31,%zmm3,%zmm3
	vbroadcastf64x2	80(%rdi),%zmm31


	vpternlogq	$0x96,%zmm17,%zmm12,%zmm14
	vpternlogq	$0x96,%zmm19,%zmm13,%zmm7
	vpternlogq	$0x96,%zmm21,%zmm16,%zmm11
	vpternlogq	$0x96,%zmm20,%zmm15,%zmm10
	vaesenc	%zmm30,%zmm0,%zmm0
	vaesenc	%zmm30,%zmm3,%zmm3
	vbroadcastf64x2	96(%rdi),%zmm30
	vmovdqu8	0(%rcx,%rax,1),%zmm17
	vmovdqu8	64(%rcx,%rax,1),%zmm19{%k1}{z}
	vaesenc	%zmm31,%zmm0,%zmm0
	vaesenc	%zmm31,%zmm3,%zmm3
	vbroadcastf64x2	112(%rdi),%zmm31


	vpclmulqdq	$0x10,%zmm18,%zmm22,%zmm15
	vpclmulqdq	$0x01,%zmm18,%zmm22,%zmm16
	vpclmulqdq	$0x11,%zmm18,%zmm22,%zmm12
	vpclmulqdq	$0x00,%zmm18,%zmm22,%zmm13
	vaesenc	%zmm30,%zmm0,%zmm0
	vaesenc	%zmm30,%zmm3,%zmm3
	vbroadcastf64x2	128(%rdi),%zmm30
	vpternlogq	$0x96,%zmm16,%zmm11,%zmm10
	vpternlogq	$0x96,%zmm12,%zmm14,%zmm24
	vpternlogq	$0x96,%zmm13,%zmm7,%zmm25
	vpternlogq	$0x96,%zmm15,%zmm10,%zmm26
	vaesenc	%zmm31,%zmm0,%zmm0
	vaesenc	%zmm31,%zmm3,%zmm3
	vbroadcastf64x2	144(%rdi),%zmm31
	vaesenc	%zmm30,%zmm0,%zmm0
	vaesenc	%zmm30,%zmm3,%zmm3
	vbroadcastf64x2	160(%rdi),%zmm30
	vaesenc	%zmm31,%zmm0,%zmm0
	vaesenc	%zmm31,%zmm3,%zmm3
	vaesenclast	%zmm30,%zmm0,%zmm0
	vaesenclast	%zmm30,%zmm3,%zmm3
	vpxorq	%zmm17,%zmm0,%zmm0
	vpxorq	%zmm19,%zmm3,%zmm3
	vextracti32x4	$3,%zmm3,%xmm11
	movq	%r9,%r10
	vmovdqu8	%zmm0,0(%r10,%rax,1)
	vmovdqu8	%zmm3,64(%r10,%rax,1){%k1}
	vmovdqu8	%zmm3,%zmm3{%k1}{z}
	vpshufb	%zmm29,%zmm0,%zmm17
	vpshufb	%zmm29,%zmm3,%zmm19
	vextracti32x4	$3,%zmm19,%xmm7
	leaq	96(%rsi),%r10
	subq	$16 * (8 - 1),%r8


	cmpq	$16,%r8
	jl	.L_small_initial_partial_block_Gnlaqgetverdxib





	subq	$16,%r8
	movl	$0,(%rdx)
	vmovdqu64	128(%r10),%zmm1
	vpclmulqdq	$0x11,%zmm1,%zmm17,%zmm0
	vpclmulqdq	$0x00,%zmm1,%zmm17,%zmm3
	vpclmulqdq	$0x01,%zmm1,%zmm17,%zmm4
	vpclmulqdq	$0x10,%zmm1,%zmm17,%zmm5
	vmovdqu64	192(%r10),%zmm1
	vpclmulqdq	$0x11,%zmm1,%zmm19,%zmm8
	vpclmulqdq	$0x00,%zmm1,%zmm19,%zmm22
	vpclmulqdq	$0x01,%zmm1,%zmm19,%zmm30
	vpclmulqdq	$0x10,%zmm1,%zmm19,%zmm31
	vpxorq	%zmm8,%zmm0,%zmm8
	vpxorq	%zmm22,%zmm3,%zmm22
	vpxorq	%zmm30,%zmm4,%zmm30
	vpxorq	%zmm31,%zmm5,%zmm31

	vpxorq	%zmm26,%zmm30,%zmm30
	vpxorq	%zmm24,%zmm8,%zmm8
	vpxorq	%zmm25,%zmm22,%zmm22

	vpxorq	%zmm31,%zmm30,%zmm30
	vpsrldq	$8,%zmm30,%zmm4
	vpslldq	$8,%zmm30,%zmm5
	vpxorq	%zmm4,%zmm8,%zmm0
	vpxorq	%zmm5,%zmm22,%zmm3
	vextracti64x4	$1,%zmm0,%ymm30
	vpxorq	%ymm30,%ymm0,%ymm0
	vextracti32x4	$1,%ymm0,%xmm30
	vpxorq	%xmm30,%xmm0,%xmm0
	vextracti64x4	$1,%zmm3,%ymm31
	vpxorq	%ymm31,%ymm3,%ymm3
	vextracti32x4	$1,%ymm3,%xmm31
	vpxorq	%xmm31,%xmm3,%xmm3
	vmovdqa64	POLY2(%rip),%xmm1


	vpclmulqdq	$0x01,%xmm3,%xmm1,%xmm4
	vpslldq	$8,%xmm4,%xmm4
	vpxorq	%xmm4,%xmm3,%xmm4


	vpclmulqdq	$0x00,%xmm4,%xmm1,%xmm5
	vpsrldq	$4,%xmm5,%xmm5
	vpclmulqdq	$0x10,%xmm4,%xmm1,%xmm14
	vpslldq	$4,%xmm14,%xmm14
	vpternlogq	$0x96,%xmm0,%xmm5,%xmm14

	jmp	.L_small_initial_compute_done_Gnlaqgetverdxib
.L_small_initial_partial_block_Gnlaqgetverdxib:








	movl	%r8d,(%rdx)
	vmovdqu64	%xmm11,16(%rsi)
	vmovdqu64	144(%r10),%zmm1
	vpclmulqdq	$0x11,%zmm1,%zmm17,%zmm8
	vpclmulqdq	$0x00,%zmm1,%zmm17,%zmm22
	vpclmulqdq	$0x01,%zmm1,%zmm17,%zmm30
	vpclmulqdq	$0x10,%zmm1,%zmm17,%zmm31
	vmovdqu64	208(%r10),%ymm1
	vinserti64x2	$2,240(%r10),%zmm1,%zmm1
	vpclmulqdq	$0x01,%zmm1,%zmm19,%zmm4
	vpclmulqdq	$0x10,%zmm1,%zmm19,%zmm5
	vpclmulqdq	$0x11,%zmm1,%zmm19,%zmm0
	vpclmulqdq	$0x00,%zmm1,%zmm19,%zmm3

	vpxorq	%zmm30,%zmm4,%zmm4
	vpternlogq	$0x96,%zmm31,%zmm26,%zmm5
	vpternlogq	$0x96,%zmm8,%zmm24,%zmm0
	vpternlogq	$0x96,%zmm22,%zmm25,%zmm3

	vpxorq	%zmm5,%zmm4,%zmm4
	vpsrldq	$8,%zmm4,%zmm30
	vpslldq	$8,%zmm4,%zmm31
	vpxorq	%zmm30,%zmm0,%zmm0
	vpxorq	%zmm31,%zmm3,%zmm3
	vextracti64x4	$1,%zmm0,%ymm30
	vpxorq	%ymm30,%ymm0,%ymm0
	vextracti32x4	$1,%ymm0,%xmm30
	vpxorq	%xmm30,%xmm0,%xmm0
	vextracti64x4	$1,%zmm3,%ymm31
	vpxorq	%ymm31,%ymm3,%ymm3
	vextracti32x4	$1,%ymm3,%xmm31
	vpxorq	%xmm31,%xmm3,%xmm3
	vmovdqa64	POLY2(%rip),%xmm1


	vpclmulqdq	$0x01,%xmm3,%xmm1,%xmm4
	vpslldq	$8,%xmm4,%xmm4
	vpxorq	%xmm4,%xmm3,%xmm4


	vpclmulqdq	$0x00,%xmm4,%xmm1,%xmm5
	vpsrldq	$4,%xmm5,%xmm5
	vpclmulqdq	$0x10,%xmm4,%xmm1,%xmm14
	vpslldq	$4,%xmm14,%xmm14
	vpternlogq	$0x96,%xmm0,%xmm5,%xmm14

.L_small_initial_compute_done_Gnlaqgetverdxib:

	orq	%r8,%r8
	je	.L_after_reduction_Gnlaqgetverdxib
	vpxorq	%xmm7,%xmm14,%xmm14
.L_after_reduction_Gnlaqgetverdxib:
	jmp	.L_last_blocks_done_iFdBmvaydAEvGwl
.L_last_num_blocks_is_9_iFdBmvaydAEvGwl:
	leaq	byte64_len_to_mask_table(%rip),%r10
	movq	%r8,%r11
	subq	$128,%r11
	kmovq	(%r10,%r11,8),%k1
	cmpl	$247,%r15d
	jae	.L_16_blocks_overflow_uraptvswbeGBEvg
	vpaddd	%zmm28,%zmm2,%zmm0
	vpaddd	%zmm27,%zmm0,%zmm3
	vpaddd	%xmm27,%xmm3,%xmm4
	jmp	.L_16_blocks_ok_uraptvswbeGBEvg

.L_16_blocks_overflow_uraptvswbeGBEvg:
	vpshufb	%zmm29,%zmm2,%zmm2
	vpaddd	ddq_add_1234(%rip),%zmm2,%zmm0
	vmovdqa64	ddq_add_4444(%rip),%zmm5
	vpaddd	%zmm5,%zmm0,%zmm3
	vpaddd	%zmm5,%zmm3,%zmm4
	vpshufb	%zmm29,%zmm0,%zmm0
	vpshufb	%zmm29,%zmm3,%zmm3
	vpshufb	%xmm29,%xmm4,%xmm4
.L_16_blocks_ok_uraptvswbeGBEvg:




	vbroadcastf64x2	0(%rdi),%zmm30
	vmovdqa64	1024(%rsp),%zmm8
	vmovdqu64	0(%rsp,%rbx,1),%zmm1
	vextracti32x4	$0,%zmm4,%xmm2
	vshufi64x2	$0,%zmm2,%zmm2,%zmm2


	vbroadcastf64x2	16(%rdi),%zmm31
	vmovdqu64	64(%rsp,%rbx,1),%zmm18
	vmovdqa64	1088(%rsp),%zmm22
	vpxorq	%zmm30,%zmm0,%zmm0
	vpxorq	%zmm30,%zmm3,%zmm3
	vpxorq	%xmm30,%xmm4,%xmm4
	vbroadcastf64x2	32(%rdi),%zmm30


	vpclmulqdq	$0x11,%zmm1,%zmm8,%zmm14
	vpclmulqdq	$0x00,%zmm1,%zmm8,%zmm7
	vpclmulqdq	$0x01,%zmm1,%zmm8,%zmm10
	vpclmulqdq	$0x10,%zmm1,%zmm8,%zmm11
	vmovdqu64	128(%rsp,%rbx,1),%zmm1
	vmovdqa64	1152(%rsp),%zmm8
	vaesenc	%zmm31,%zmm0,%zmm0
	vaesenc	%zmm31,%zmm3,%zmm3
	vaesenc	%xmm31,%xmm4,%xmm4
	vbroadcastf64x2	48(%rdi),%zmm31


	vpclmulqdq	$0x10,%zmm18,%zmm22,%zmm15
	vpclmulqdq	$0x01,%zmm18,%zmm22,%zmm16
	vpclmulqdq	$0x11,%zmm18,%zmm22,%zmm12
	vpclmulqdq	$0x00,%zmm18,%zmm22,%zmm13
	vmovdqu64	192(%rsp,%rbx,1),%zmm18
	vmovdqa64	1216(%rsp),%zmm22
	vaesenc	%zmm30,%zmm0,%zmm0
	vaesenc	%zmm30,%zmm3,%zmm3
	vaesenc	%xmm30,%xmm4,%xmm4
	vbroadcastf64x2	64(%rdi),%zmm30


	vpclmulqdq	$0x10,%zmm1,%zmm8,%zmm20
	vpclmulqdq	$0x01,%zmm1,%zmm8,%zmm21
	vpclmulqdq	$0x11,%zmm1,%zmm8,%zmm17
	vpclmulqdq	$0x00,%zmm1,%zmm8,%zmm19
	vaesenc	%zmm31,%zmm0,%zmm0
	vaesenc	%zmm31,%zmm3,%zmm3
	vaesenc	%xmm31,%xmm4,%xmm4
	vbroadcastf64x2	80(%rdi),%zmm31


	vpternlogq	$0x96,%zmm17,%zmm12,%zmm14
	vpternlogq	$0x96,%zmm19,%zmm13,%zmm7
	vpternlogq	$0x96,%zmm21,%zmm16,%zmm11
	vpternlogq	$0x96,%zmm20,%zmm15,%zmm10
	vaesenc	%zmm30,%zmm0,%zmm0
	vaesenc	%zmm30,%zmm3,%zmm3
	vaesenc	%xmm30,%xmm4,%xmm4
	vbroadcastf64x2	96(%rdi),%zmm30
	vmovdqu8	0(%rcx,%rax,1),%zmm17
	vmovdqu8	64(%rcx,%rax,1),%zmm19
	vmovdqu8	128(%rcx,%rax,1),%xmm20{%k1}{z}
	vaesenc	%zmm31,%zmm0,%zmm0
	vaesenc	%zmm31,%zmm3,%zmm3
	vaesenc	%xmm31,%xmm4,%xmm4
	vbroadcastf64x2	112(%rdi),%zmm31


	vpclmulqdq	$0x10,%zmm18,%zmm22,%zmm15
	vpclmulqdq	$0x01,%zmm18,%zmm22,%zmm16
	vpclmulqdq	$0x11,%zmm18,%zmm22,%zmm12
	vpclmulqdq	$0x00,%zmm18,%zmm22,%zmm13
	vaesenc	%zmm30,%zmm0,%zmm0
	vaesenc	%zmm30,%zmm3,%zmm3
	vaesenc	%xmm30,%xmm4,%xmm4
	vbroadcastf64x2	128(%rdi),%zmm30
	vpternlogq	$0x96,%zmm16,%zmm11,%zmm10
	vpternlogq	$0x96,%zmm12,%zmm14,%zmm24
	vpternlogq	$0x96,%zmm13,%zmm7,%zmm25
	vpternlogq	$0x96,%zmm15,%zmm10,%zmm26
	vaesenc	%zmm31,%zmm0,%zmm0
	vaesenc	%zmm31,%zmm3,%zmm3
	vaesenc	%xmm31,%xmm4,%xmm4
	vbroadcastf64x2	144(%rdi),%zmm31
	vaesenc	%zmm30,%zmm0,%zmm0
	vaesenc	%zmm30,%zmm3,%zmm3
	vaesenc	%xmm30,%xmm4,%xmm4
	vbroadcastf64x2	160(%rdi),%zmm30
	vaesenc	%zmm31,%zmm0,%zmm0
	vaesenc	%zmm31,%zmm3,%zmm3
	vaesenc	%xmm31,%xmm4,%xmm4
	vaesenclast	%zmm30,%zmm0,%zmm0
	vaesenclast	%zmm30,%zmm3,%zmm3
	vaesenclast	%xmm30,%xmm4,%xmm4
	vpxorq	%zmm17,%zmm0,%zmm0
	vpxorq	%zmm19,%zmm3,%zmm3
	vpxorq	%xmm20,%xmm4,%xmm4
	vextracti32x4	$0,%zmm4,%xmm11
	movq	%r9,%r10
	vmovdqu8	%zmm0,0(%r10,%rax,1)
	vmovdqu8	%zmm3,64(%r10,%rax,1)
	vmovdqu8	%xmm4,128(%r10,%rax,1){%k1}
	vmovdqu8	%zmm4,%zmm4{%k1}{z}
	vpshufb	%zmm29,%zmm0,%zmm17
	vpshufb	%zmm29,%zmm3,%zmm19
	vpshufb	%xmm29,%xmm4,%xmm20
	vextracti32x4	$0,%zmm20,%xmm7
	leaq	96(%rsi),%r10
	subq	$16 * (9 - 1),%r8


	cmpq	$16,%r8
	jl	.L_small_initial_partial_block_anGegwglAfkrlbF





	subq	$16,%r8
	movl	$0,(%rdx)
	vmovdqu64	112(%r10),%zmm1
	vpclmulqdq	$0x11,%zmm1,%zmm17,%zmm0
	vpclmulqdq	$0x00,%zmm1,%zmm17,%zmm3
	vpclmulqdq	$0x01,%zmm1,%zmm17,%zmm4
	vpclmulqdq	$0x10,%zmm1,%zmm17,%zmm5
	vmovdqu64	176(%r10),%zmm1
	vpclmulqdq	$0x11,%zmm1,%zmm19,%zmm8
	vpclmulqdq	$0x00,%zmm1,%zmm19,%zmm22
	vpclmulqdq	$0x01,%zmm1,%zmm19,%zmm30
	vpclmulqdq	$0x10,%zmm1,%zmm19,%zmm31
	vpxorq	%zmm8,%zmm0,%zmm8
	vpxorq	%zmm22,%zmm3,%zmm22
	vpxorq	%zmm30,%zmm4,%zmm30
	vpxorq	%zmm31,%zmm5,%zmm31
	vmovdqu64	240(%r10),%xmm1
	vpclmulqdq	$0x01,%xmm1,%xmm20,%xmm4
	vpclmulqdq	$0x10,%xmm1,%xmm20,%xmm5
	vpclmulqdq	$0x11,%xmm1,%xmm20,%xmm0
	vpclmulqdq	$0x00,%xmm1,%xmm20,%xmm3

	vpxorq	%zmm30,%zmm4,%zmm4
	vpternlogq	$0x96,%zmm31,%zmm26,%zmm5
	vpternlogq	$0x96,%zmm8,%zmm24,%zmm0
	vpternlogq	$0x96,%zmm22,%zmm25,%zmm3

	vpxorq	%zmm5,%zmm4,%zmm4
	vpsrldq	$8,%zmm4,%zmm30
	vpslldq	$8,%zmm4,%zmm31
	vpxorq	%zmm30,%zmm0,%zmm0
	vpxorq	%zmm31,%zmm3,%zmm3
	vextracti64x4	$1,%zmm0,%ymm30
	vpxorq	%ymm30,%ymm0,%ymm0
	vextracti32x4	$1,%ymm0,%xmm30
	vpxorq	%xmm30,%xmm0,%xmm0
	vextracti64x4	$1,%zmm3,%ymm31
	vpxorq	%ymm31,%ymm3,%ymm3
	vextracti32x4	$1,%ymm3,%xmm31
	vpxorq	%xmm31,%xmm3,%xmm3
	vmovdqa64	POLY2(%rip),%xmm1


	vpclmulqdq	$0x01,%xmm3,%xmm1,%xmm4
	vpslldq	$8,%xmm4,%xmm4
	vpxorq	%xmm4,%xmm3,%xmm4


	vpclmulqdq	$0x00,%xmm4,%xmm1,%xmm5
	vpsrldq	$4,%xmm5,%xmm5
	vpclmulqdq	$0x10,%xmm4,%xmm1,%xmm14
	vpslldq	$4,%xmm14,%xmm14
	vpternlogq	$0x96,%xmm0,%xmm5,%xmm14

	jmp	.L_small_initial_compute_done_anGegwglAfkrlbF
.L_small_initial_partial_block_anGegwglAfkrlbF:








	movl	%r8d,(%rdx)
	vmovdqu64	%xmm11,16(%rsi)
	vmovdqu64	128(%r10),%zmm1
	vpclmulqdq	$0x11,%zmm1,%zmm17,%zmm0
	vpclmulqdq	$0x00,%zmm1,%zmm17,%zmm3
	vpclmulqdq	$0x01,%zmm1,%zmm17,%zmm4
	vpclmulqdq	$0x10,%zmm1,%zmm17,%zmm5
	vmovdqu64	192(%r10),%zmm1
	vpclmulqdq	$0x11,%zmm1,%zmm19,%zmm8
	vpclmulqdq	$0x00,%zmm1,%zmm19,%zmm22
	vpclmulqdq	$0x01,%zmm1,%zmm19,%zmm30
	vpclmulqdq	$0x10,%zmm1,%zmm19,%zmm31
	vpxorq	%zmm8,%zmm0,%zmm8
	vpxorq	%zmm22,%zmm3,%zmm22
	vpxorq	%zmm30,%zmm4,%zmm30
	vpxorq	%zmm31,%zmm5,%zmm31

	vpxorq	%zmm26,%zmm30,%zmm30
	vpxorq	%zmm24,%zmm8,%zmm8
	vpxorq	%zmm25,%zmm22,%zmm22

	vpxorq	%zmm31,%zmm30,%zmm30
	vpsrldq	$8,%zmm30,%zmm4
	vpslldq	$8,%zmm30,%zmm5
	vpxorq	%zmm4,%zmm8,%zmm0
	vpxorq	%zmm5,%zmm22,%zmm3
	vextracti64x4	$1,%zmm0,%ymm30
	vpxorq	%ymm30,%ymm0,%ymm0
	vextracti32x4	$1,%ymm0,%xmm30
	vpxorq	%xmm30,%xmm0,%xmm0
	vextracti64x4	$1,%zmm3,%ymm31
	vpxorq	%ymm31,%ymm3,%ymm3
	vextracti32x4	$1,%ymm3,%xmm31
	vpxorq	%xmm31,%xmm3,%xmm3
	vmovdqa64	POLY2(%rip),%xmm1


	vpclmulqdq	$0x01,%xmm3,%xmm1,%xmm4
	vpslldq	$8,%xmm4,%xmm4
	vpxorq	%xmm4,%xmm3,%xmm4


	vpclmulqdq	$0x00,%xmm4,%xmm1,%xmm5
	vpsrldq	$4,%xmm5,%xmm5
	vpclmulqdq	$0x10,%xmm4,%xmm1,%xmm14
	vpslldq	$4,%xmm14,%xmm14
	vpternlogq	$0x96,%xmm0,%xmm5,%xmm14

.L_small_initial_compute_done_anGegwglAfkrlbF:

	orq	%r8,%r8
	je	.L_after_reduction_anGegwglAfkrlbF
	vpxorq	%xmm7,%xmm14,%xmm14
.L_after_reduction_anGegwglAfkrlbF:
	jmp	.L_last_blocks_done_iFdBmvaydAEvGwl
.L_last_num_blocks_is_10_iFdBmvaydAEvGwl:
	leaq	byte64_len_to_mask_table(%rip),%r10
	movq	%r8,%r11
	subq	$128,%r11
	kmovq	(%r10,%r11,8),%k1
	cmpl	$246,%r15d
	jae	.L_16_blocks_overflow_sjaxuxoxqtyxCFF
	vpaddd	%zmm28,%zmm2,%zmm0
	vpaddd	%zmm27,%zmm0,%zmm3
	vpaddd	%ymm27,%ymm3,%ymm4
	jmp	.L_16_blocks_ok_sjaxuxoxqtyxCFF

.L_16_blocks_overflow_sjaxuxoxqtyxCFF:
	vpshufb	%zmm29,%zmm2,%zmm2
	vpaddd	ddq_add_1234(%rip),%zmm2,%zmm0
	vmovdqa64	ddq_add_4444(%rip),%zmm5
	vpaddd	%zmm5,%zmm0,%zmm3
	vpaddd	%zmm5,%zmm3,%zmm4
	vpshufb	%zmm29,%zmm0,%zmm0
	vpshufb	%zmm29,%zmm3,%zmm3
	vpshufb	%ymm29,%ymm4,%ymm4
.L_16_blocks_ok_sjaxuxoxqtyxCFF:




	vbroadcastf64x2	0(%rdi),%zmm30
	vmovdqa64	1024(%rsp),%zmm8
	vmovdqu64	0(%rsp,%rbx,1),%zmm1
	vextracti32x4	$1,%zmm4,%xmm2
	vshufi64x2	$0,%zmm2,%zmm2,%zmm2


	vbroadcastf64x2	16(%rdi),%zmm31
	vmovdqu64	64(%rsp,%rbx,1),%zmm18
	vmovdqa64	1088(%rsp),%zmm22
	vpxorq	%zmm30,%zmm0,%zmm0
	vpxorq	%zmm30,%zmm3,%zmm3
	vpxorq	%ymm30,%ymm4,%ymm4
	vbroadcastf64x2	32(%rdi),%zmm30


	vpclmulqdq	$0x11,%zmm1,%zmm8,%zmm14
	vpclmulqdq	$0x00,%zmm1,%zmm8,%zmm7
	vpclmulqdq	$0x01,%zmm1,%zmm8,%zmm10
	vpclmulqdq	$0x10,%zmm1,%zmm8,%zmm11
	vmovdqu64	128(%rsp,%rbx,1),%zmm1
	vmovdqa64	1152(%rsp),%zmm8
	vaesenc	%zmm31,%zmm0,%zmm0
	vaesenc	%zmm31,%zmm3,%zmm3
	vaesenc	%ymm31,%ymm4,%ymm4
	vbroadcastf64x2	48(%rdi),%zmm31


	vpclmulqdq	$0x10,%zmm18,%zmm22,%zmm15
	vpclmulqdq	$0x01,%zmm18,%zmm22,%zmm16
	vpclmulqdq	$0x11,%zmm18,%zmm22,%zmm12
	vpclmulqdq	$0x00,%zmm18,%zmm22,%zmm13
	vmovdqu64	192(%rsp,%rbx,1),%zmm18
	vmovdqa64	1216(%rsp),%zmm22
	vaesenc	%zmm30,%zmm0,%zmm0
	vaesenc	%zmm30,%zmm3,%zmm3
	vaesenc	%ymm30,%ymm4,%ymm4
	vbroadcastf64x2	64(%rdi),%zmm30


	vpclmulqdq	$0x10,%zmm1,%zmm8,%zmm20
	vpclmulqdq	$0x01,%zmm1,%zmm8,%zmm21
	vpclmulqdq	$0x11,%zmm1,%zmm8,%zmm17
	vpclmulqdq	$0x00,%zmm1,%zmm8,%zmm19
	vaesenc	%zmm31,%zmm0,%zmm0
	vaesenc	%zmm31,%zmm3,%zmm3
	vaesenc	%ymm31,%ymm4,%ymm4
	vbroadcastf64x2	80(%rdi),%zmm31


	vpternlogq	$0x96,%zmm17,%zmm12,%zmm14
	vpternlogq	$0x96,%zmm19,%zmm13,%zmm7
	vpternlogq	$0x96,%zmm21,%zmm16,%zmm11
	vpternlogq	$0x96,%zmm20,%zmm15,%zmm10
	vaesenc	%zmm30,%zmm0,%zmm0
	vaesenc	%zmm30,%zmm3,%zmm3
	vaesenc	%ymm30,%ymm4,%ymm4
	vbroadcastf64x2	96(%rdi),%zmm30
	vmovdqu8	0(%rcx,%rax,1),%zmm17
	vmovdqu8	64(%rcx,%rax,1),%zmm19
	vmovdqu8	128(%rcx,%rax,1),%ymm20{%k1}{z}
	vaesenc	%zmm31,%zmm0,%zmm0
	vaesenc	%zmm31,%zmm3,%zmm3
	vaesenc	%ymm31,%ymm4,%ymm4
	vbroadcastf64x2	112(%rdi),%zmm31


	vpclmulqdq	$0x10,%zmm18,%zmm22,%zmm15
	vpclmulqdq	$0x01,%zmm18,%zmm22,%zmm16
	vpclmulqdq	$0x11,%zmm18,%zmm22,%zmm12
	vpclmulqdq	$0x00,%zmm18,%zmm22,%zmm13
	vaesenc	%zmm30,%zmm0,%zmm0
	vaesenc	%zmm30,%zmm3,%zmm3
	vaesenc	%ymm30,%ymm4,%ymm4
	vbroadcastf64x2	128(%rdi),%zmm30
	vpternlogq	$0x96,%zmm16,%zmm11,%zmm10
	vpternlogq	$0x96,%zmm12,%zmm14,%zmm24
	vpternlogq	$0x96,%zmm13,%zmm7,%zmm25
	vpternlogq	$0x96,%zmm15,%zmm10,%zmm26
	vaesenc	%zmm31,%zmm0,%zmm0
	vaesenc	%zmm31,%zmm3,%zmm3
	vaesenc	%ymm31,%ymm4,%ymm4
	vbroadcastf64x2	144(%rdi),%zmm31
	vaesenc	%zmm30,%zmm0,%zmm0
	vaesenc	%zmm30,%zmm3,%zmm3
	vaesenc	%ymm30,%ymm4,%ymm4
	vbroadcastf64x2	160(%rdi),%zmm30
	vaesenc	%zmm31,%zmm0,%zmm0
	vaesenc	%zmm31,%zmm3,%zmm3
	vaesenc	%ymm31,%ymm4,%ymm4
	vaesenclast	%zmm30,%zmm0,%zmm0
	vaesenclast	%zmm30,%zmm3,%zmm3
	vaesenclast	%ymm30,%ymm4,%ymm4
	vpxorq	%zmm17,%zmm0,%zmm0
	vpxorq	%zmm19,%zmm3,%zmm3
	vpxorq	%ymm20,%ymm4,%ymm4
	vextracti32x4	$1,%zmm4,%xmm11
	movq	%r9,%r10
	vmovdqu8	%zmm0,0(%r10,%rax,1)
	vmovdqu8	%zmm3,64(%r10,%rax,1)
	vmovdqu8	%ymm4,128(%r10,%rax,1){%k1}
	vmovdqu8	%zmm4,%zmm4{%k1}{z}
	vpshufb	%zmm29,%zmm0,%zmm17
	vpshufb	%zmm29,%zmm3,%zmm19
	vpshufb	%ymm29,%ymm4,%ymm20
	vextracti32x4	$1,%zmm20,%xmm7
	leaq	96(%rsi),%r10
	subq	$16 * (10 - 1),%r8


	cmpq	$16,%r8
	jl	.L_small_initial_partial_block_oeAdjAuAGqceugd





	subq	$16,%r8
	movl	$0,(%rdx)
	vmovdqu64	96(%r10),%zmm1
	vpclmulqdq	$0x11,%zmm1,%zmm17,%zmm0
	vpclmulqdq	$0x00,%zmm1,%zmm17,%zmm3
	vpclmulqdq	$0x01,%zmm1,%zmm17,%zmm4
	vpclmulqdq	$0x10,%zmm1,%zmm17,%zmm5
	vmovdqu64	160(%r10),%zmm1
	vpclmulqdq	$0x11,%zmm1,%zmm19,%zmm8
	vpclmulqdq	$0x00,%zmm1,%zmm19,%zmm22
	vpclmulqdq	$0x01,%zmm1,%zmm19,%zmm30
	vpclmulqdq	$0x10,%zmm1,%zmm19,%zmm31
	vpxorq	%zmm8,%zmm0,%zmm8
	vpxorq	%zmm22,%zmm3,%zmm22
	vpxorq	%zmm30,%zmm4,%zmm30
	vpxorq	%zmm31,%zmm5,%zmm31
	vmovdqu64	224(%r10),%ymm1
	vpclmulqdq	$0x01,%ymm1,%ymm20,%ymm4
	vpclmulqdq	$0x10,%ymm1,%ymm20,%ymm5
	vpclmulqdq	$0x11,%ymm1,%ymm20,%ymm0
	vpclmulqdq	$0x00,%ymm1,%ymm20,%ymm3

	vpxorq	%zmm30,%zmm4,%zmm4
	vpternlogq	$0x96,%zmm31,%zmm26,%zmm5
	vpternlogq	$0x96,%zmm8,%zmm24,%zmm0
	vpternlogq	$0x96,%zmm22,%zmm25,%zmm3

	vpxorq	%zmm5,%zmm4,%zmm4
	vpsrldq	$8,%zmm4,%zmm30
	vpslldq	$8,%zmm4,%zmm31
	vpxorq	%zmm30,%zmm0,%zmm0
	vpxorq	%zmm31,%zmm3,%zmm3
	vextracti64x4	$1,%zmm0,%ymm30
	vpxorq	%ymm30,%ymm0,%ymm0
	vextracti32x4	$1,%ymm0,%xmm30
	vpxorq	%xmm30,%xmm0,%xmm0
	vextracti64x4	$1,%zmm3,%ymm31
	vpxorq	%ymm31,%ymm3,%ymm3
	vextracti32x4	$1,%ymm3,%xmm31
	vpxorq	%xmm31,%xmm3,%xmm3
	vmovdqa64	POLY2(%rip),%xmm1


	vpclmulqdq	$0x01,%xmm3,%xmm1,%xmm4
	vpslldq	$8,%xmm4,%xmm4
	vpxorq	%xmm4,%xmm3,%xmm4


	vpclmulqdq	$0x00,%xmm4,%xmm1,%xmm5
	vpsrldq	$4,%xmm5,%xmm5
	vpclmulqdq	$0x10,%xmm4,%xmm1,%xmm14
	vpslldq	$4,%xmm14,%xmm14
	vpternlogq	$0x96,%xmm0,%xmm5,%xmm14

	jmp	.L_small_initial_compute_done_oeAdjAuAGqceugd
.L_small_initial_partial_block_oeAdjAuAGqceugd:








	movl	%r8d,(%rdx)
	vmovdqu64	%xmm11,16(%rsi)
	vmovdqu64	112(%r10),%zmm1
	vpclmulqdq	$0x11,%zmm1,%zmm17,%zmm0
	vpclmulqdq	$0x00,%zmm1,%zmm17,%zmm3
	vpclmulqdq	$0x01,%zmm1,%zmm17,%zmm4
	vpclmulqdq	$0x10,%zmm1,%zmm17,%zmm5
	vmovdqu64	176(%r10),%zmm1
	vpclmulqdq	$0x11,%zmm1,%zmm19,%zmm8
	vpclmulqdq	$0x00,%zmm1,%zmm19,%zmm22
	vpclmulqdq	$0x01,%zmm1,%zmm19,%zmm30
	vpclmulqdq	$0x10,%zmm1,%zmm19,%zmm31
	vpxorq	%zmm8,%zmm0,%zmm8
	vpxorq	%zmm22,%zmm3,%zmm22
	vpxorq	%zmm30,%zmm4,%zmm30
	vpxorq	%zmm31,%zmm5,%zmm31
	vmovdqu64	240(%r10),%xmm1
	vpclmulqdq	$0x01,%xmm1,%xmm20,%xmm4
	vpclmulqdq	$0x10,%xmm1,%xmm20,%xmm5
	vpclmulqdq	$0x11,%xmm1,%xmm20,%xmm0
	vpclmulqdq	$0x00,%xmm1,%xmm20,%xmm3

	vpxorq	%zmm30,%zmm4,%zmm4
	vpternlogq	$0x96,%zmm31,%zmm26,%zmm5
	vpternlogq	$0x96,%zmm8,%zmm24,%zmm0
	vpternlogq	$0x96,%zmm22,%zmm25,%zmm3

	vpxorq	%zmm5,%zmm4,%zmm4
	vpsrldq	$8,%zmm4,%zmm30
	vpslldq	$8,%zmm4,%zmm31
	vpxorq	%zmm30,%zmm0,%zmm0
	vpxorq	%zmm31,%zmm3,%zmm3
	vextracti64x4	$1,%zmm0,%ymm30
	vpxorq	%ymm30,%ymm0,%ymm0
	vextracti32x4	$1,%ymm0,%xmm30
	vpxorq	%xmm30,%xmm0,%xmm0
	vextracti64x4	$1,%zmm3,%ymm31
	vpxorq	%ymm31,%ymm3,%ymm3
	vextracti32x4	$1,%ymm3,%xmm31
	vpxorq	%xmm31,%xmm3,%xmm3
	vmovdqa64	POLY2(%rip),%xmm1


	vpclmulqdq	$0x01,%xmm3,%xmm1,%xmm4
	vpslldq	$8,%xmm4,%xmm4
	vpxorq	%xmm4,%xmm3,%xmm4


	vpclmulqdq	$0x00,%xmm4,%xmm1,%xmm5
	vpsrldq	$4,%xmm5,%xmm5
	vpclmulqdq	$0x10,%xmm4,%xmm1,%xmm14
	vpslldq	$4,%xmm14,%xmm14
	vpternlogq	$0x96,%xmm0,%xmm5,%xmm14

.L_small_initial_compute_done_oeAdjAuAGqceugd:

	orq	%r8,%r8
	je	.L_after_reduction_oeAdjAuAGqceugd
	vpxorq	%xmm7,%xmm14,%xmm14
.L_after_reduction_oeAdjAuAGqceugd:
	jmp	.L_last_blocks_done_iFdBmvaydAEvGwl
.L_last_num_blocks_is_11_iFdBmvaydAEvGwl:
	leaq	byte64_len_to_mask_table(%rip),%r10
	movq	%r8,%r11
	subq	$128,%r11
	kmovq	(%r10,%r11,8),%k1
	cmpl	$245,%r15d
	jae	.L_16_blocks_overflow_xBtkqClFxmerucf
	vpaddd	%zmm28,%zmm2,%zmm0
	vpaddd	%zmm27,%zmm0,%zmm3
	vpaddd	%zmm27,%zmm3,%zmm4
	jmp	.L_16_blocks_ok_xBtkqClFxmerucf

.L_16_blocks_overflow_xBtkqClFxmerucf:
	vpshufb	%zmm29,%zmm2,%zmm2
	vpaddd	ddq_add_1234(%rip),%zmm2,%zmm0
	vmovdqa64	ddq_add_4444(%rip),%zmm5
	vpaddd	%zmm5,%zmm0,%zmm3
	vpaddd	%zmm5,%zmm3,%zmm4
	vpshufb	%zmm29,%zmm0,%zmm0
	vpshufb	%zmm29,%zmm3,%zmm3
	vpshufb	%zmm29,%zmm4,%zmm4
.L_16_blocks_ok_xBtkqClFxmerucf:




	vbroadcastf64x2	0(%rdi),%zmm30
	vmovdqa64	1024(%rsp),%zmm8
	vmovdqu64	0(%rsp,%rbx,1),%zmm1
	vextracti32x4	$2,%zmm4,%xmm2
	vshufi64x2	$0,%zmm2,%zmm2,%zmm2


	vbroadcastf64x2	16(%rdi),%zmm31
	vmovdqu64	64(%rsp,%rbx,1),%zmm18
	vmovdqa64	1088(%rsp),%zmm22
	vpxorq	%zmm30,%zmm0,%zmm0
	vpxorq	%zmm30,%zmm3,%zmm3
	vpxorq	%zmm30,%zmm4,%zmm4
	vbroadcastf64x2	32(%rdi),%zmm30


	vpclmulqdq	$0x11,%zmm1,%zmm8,%zmm14
	vpclmulqdq	$0x00,%zmm1,%zmm8,%zmm7
	vpclmulqdq	$0x01,%zmm1,%zmm8,%zmm10
	vpclmulqdq	$0x10,%zmm1,%zmm8,%zmm11
	vmovdqu64	128(%rsp,%rbx,1),%zmm1
	vmovdqa64	1152(%rsp),%zmm8
	vaesenc	%zmm31,%zmm0,%zmm0
	vaesenc	%zmm31,%zmm3,%zmm3
	vaesenc	%zmm31,%zmm4,%zmm4
	vbroadcastf64x2	48(%rdi),%zmm31


	vpclmulqdq	$0x10,%zmm18,%zmm22,%zmm15
	vpclmulqdq	$0x01,%zmm18,%zmm22,%zmm16
	vpclmulqdq	$0x11,%zmm18,%zmm22,%zmm12
	vpclmulqdq	$0x00,%zmm18,%zmm22,%zmm13
	vmovdqu64	192(%rsp,%rbx,1),%zmm18
	vmovdqa64	1216(%rsp),%zmm22
	vaesenc	%zmm30,%zmm0,%zmm0
	vaesenc	%zmm30,%zmm3,%zmm3
	vaesenc	%zmm30,%zmm4,%zmm4
	vbroadcastf64x2	64(%rdi),%zmm30


	vpclmulqdq	$0x10,%zmm1,%zmm8,%zmm20
	vpclmulqdq	$0x01,%zmm1,%zmm8,%zmm21
	vpclmulqdq	$0x11,%zmm1,%zmm8,%zmm17
	vpclmulqdq	$0x00,%zmm1,%zmm8,%zmm19
	vaesenc	%zmm31,%zmm0,%zmm0
	vaesenc	%zmm31,%zmm3,%zmm3
	vaesenc	%zmm31,%zmm4,%zmm4
	vbroadcastf64x2	80(%rdi),%zmm31


	vpternlogq	$0x96,%zmm17,%zmm12,%zmm14
	vpternlogq	$0x96,%zmm19,%zmm13,%zmm7
	vpternlogq	$0x96,%zmm21,%zmm16,%zmm11
	vpternlogq	$0x96,%zmm20,%zmm15,%zmm10
	vaesenc	%zmm30,%zmm0,%zmm0
	vaesenc	%zmm30,%zmm3,%zmm3
	vaesenc	%zmm30,%zmm4,%zmm4
	vbroadcastf64x2	96(%rdi),%zmm30
	vmovdqu8	0(%rcx,%rax,1),%zmm17
	vmovdqu8	64(%rcx,%rax,1),%zmm19
	vmovdqu8	128(%rcx,%rax,1),%zmm20{%k1}{z}
	vaesenc	%zmm31,%zmm0,%zmm0
	vaesenc	%zmm31,%zmm3,%zmm3
	vaesenc	%zmm31,%zmm4,%zmm4
	vbroadcastf64x2	112(%rdi),%zmm31


	vpclmulqdq	$0x10,%zmm18,%zmm22,%zmm15
	vpclmulqdq	$0x01,%zmm18,%zmm22,%zmm16
	vpclmulqdq	$0x11,%zmm18,%zmm22,%zmm12
	vpclmulqdq	$0x00,%zmm18,%zmm22,%zmm13
	vaesenc	%zmm30,%zmm0,%zmm0
	vaesenc	%zmm30,%zmm3,%zmm3
	vaesenc	%zmm30,%zmm4,%zmm4
	vbroadcastf64x2	128(%rdi),%zmm30
	vpternlogq	$0x96,%zmm16,%zmm11,%zmm10
	vpternlogq	$0x96,%zmm12,%zmm14,%zmm24
	vpternlogq	$0x96,%zmm13,%zmm7,%zmm25
	vpternlogq	$0x96,%zmm15,%zmm10,%zmm26
	vaesenc	%zmm31,%zmm0,%zmm0
	vaesenc	%zmm31,%zmm3,%zmm3
	vaesenc	%zmm31,%zmm4,%zmm4
	vbroadcastf64x2	144(%rdi),%zmm31
	vaesenc	%zmm30,%zmm0,%zmm0
	vaesenc	%zmm30,%zmm3,%zmm3
	vaesenc	%zmm30,%zmm4,%zmm4
	vbroadcastf64x2	160(%rdi),%zmm30
	vaesenc	%zmm31,%zmm0,%zmm0
	vaesenc	%zmm31,%zmm3,%zmm3
	vaesenc	%zmm31,%zmm4,%zmm4
	vaesenclast	%zmm30,%zmm0,%zmm0
	vaesenclast	%zmm30,%zmm3,%zmm3
	vaesenclast	%zmm30,%zmm4,%zmm4
	vpxorq	%zmm17,%zmm0,%zmm0
	vpxorq	%zmm19,%zmm3,%zmm3
	vpxorq	%zmm20,%zmm4,%zmm4
	vextracti32x4	$2,%zmm4,%xmm11
	movq	%r9,%r10
	vmovdqu8	%zmm0,0(%r10,%rax,1)
	vmovdqu8	%zmm3,64(%r10,%rax,1)
	vmovdqu8	%zmm4,128(%r10,%rax,1){%k1}
	vmovdqu8	%zmm4,%zmm4{%k1}{z}
	vpshufb	%zmm29,%zmm0,%zmm17
	vpshufb	%zmm29,%zmm3,%zmm19
	vpshufb	%zmm29,%zmm4,%zmm20
	vextracti32x4	$2,%zmm20,%xmm7
	leaq	96(%rsi),%r10
	subq	$16 * (11 - 1),%r8


	cmpq	$16,%r8
	jl	.L_small_initial_partial_block_pjFuoxuEbfheekB





	subq	$16,%r8
	movl	$0,(%rdx)
	vmovdqu64	80(%r10),%zmm1
	vpclmulqdq	$0x11,%zmm1,%zmm17,%zmm0
	vpclmulqdq	$0x00,%zmm1,%zmm17,%zmm3
	vpclmulqdq	$0x01,%zmm1,%zmm17,%zmm4
	vpclmulqdq	$0x10,%zmm1,%zmm17,%zmm5
	vmovdqu64	144(%r10),%zmm1
	vpclmulqdq	$0x11,%zmm1,%zmm19,%zmm8
	vpclmulqdq	$0x00,%zmm1,%zmm19,%zmm22
	vpclmulqdq	$0x01,%zmm1,%zmm19,%zmm30
	vpclmulqdq	$0x10,%zmm1,%zmm19,%zmm31
	vpxorq	%zmm8,%zmm0,%zmm8
	vpxorq	%zmm22,%zmm3,%zmm22
	vpxorq	%zmm30,%zmm4,%zmm30
	vpxorq	%zmm31,%zmm5,%zmm31
	vmovdqu64	208(%r10),%ymm1
	vinserti64x2	$2,240(%r10),%zmm1,%zmm1
	vpclmulqdq	$0x01,%zmm1,%zmm20,%zmm4
	vpclmulqdq	$0x10,%zmm1,%zmm20,%zmm5
	vpclmulqdq	$0x11,%zmm1,%zmm20,%zmm0
	vpclmulqdq	$0x00,%zmm1,%zmm20,%zmm3

	vpxorq	%zmm30,%zmm4,%zmm4
	vpternlogq	$0x96,%zmm31,%zmm26,%zmm5
	vpternlogq	$0x96,%zmm8,%zmm24,%zmm0
	vpternlogq	$0x96,%zmm22,%zmm25,%zmm3

	vpxorq	%zmm5,%zmm4,%zmm4
	vpsrldq	$8,%zmm4,%zmm30
	vpslldq	$8,%zmm4,%zmm31
	vpxorq	%zmm30,%zmm0,%zmm0
	vpxorq	%zmm31,%zmm3,%zmm3
	vextracti64x4	$1,%zmm0,%ymm30
	vpxorq	%ymm30,%ymm0,%ymm0
	vextracti32x4	$1,%ymm0,%xmm30
	vpxorq	%xmm30,%xmm0,%xmm0
	vextracti64x4	$1,%zmm3,%ymm31
	vpxorq	%ymm31,%ymm3,%ymm3
	vextracti32x4	$1,%ymm3,%xmm31
	vpxorq	%xmm31,%xmm3,%xmm3
	vmovdqa64	POLY2(%rip),%xmm1


	vpclmulqdq	$0x01,%xmm3,%xmm1,%xmm4
	vpslldq	$8,%xmm4,%xmm4
	vpxorq	%xmm4,%xmm3,%xmm4


	vpclmulqdq	$0x00,%xmm4,%xmm1,%xmm5
	vpsrldq	$4,%xmm5,%xmm5
	vpclmulqdq	$0x10,%xmm4,%xmm1,%xmm14
	vpslldq	$4,%xmm14,%xmm14
	vpternlogq	$0x96,%xmm0,%xmm5,%xmm14

	jmp	.L_small_initial_compute_done_pjFuoxuEbfheekB
.L_small_initial_partial_block_pjFuoxuEbfheekB:








	movl	%r8d,(%rdx)
	vmovdqu64	%xmm11,16(%rsi)
	vmovdqu64	96(%r10),%zmm1
	vpclmulqdq	$0x11,%zmm1,%zmm17,%zmm0
	vpclmulqdq	$0x00,%zmm1,%zmm17,%zmm3
	vpclmulqdq	$0x01,%zmm1,%zmm17,%zmm4
	vpclmulqdq	$0x10,%zmm1,%zmm17,%zmm5
	vmovdqu64	160(%r10),%zmm1
	vpclmulqdq	$0x11,%zmm1,%zmm19,%zmm8
	vpclmulqdq	$0x00,%zmm1,%zmm19,%zmm22
	vpclmulqdq	$0x01,%zmm1,%zmm19,%zmm30
	vpclmulqdq	$0x10,%zmm1,%zmm19,%zmm31
	vpxorq	%zmm8,%zmm0,%zmm8
	vpxorq	%zmm22,%zmm3,%zmm22
	vpxorq	%zmm30,%zmm4,%zmm30
	vpxorq	%zmm31,%zmm5,%zmm31
	vmovdqu64	224(%r10),%ymm1
	vpclmulqdq	$0x01,%ymm1,%ymm20,%ymm4
	vpclmulqdq	$0x10,%ymm1,%ymm20,%ymm5
	vpclmulqdq	$0x11,%ymm1,%ymm20,%ymm0
	vpclmulqdq	$0x00,%ymm1,%ymm20,%ymm3

	vpxorq	%zmm30,%zmm4,%zmm4
	vpternlogq	$0x96,%zmm31,%zmm26,%zmm5
	vpternlogq	$0x96,%zmm8,%zmm24,%zmm0
	vpternlogq	$0x96,%zmm22,%zmm25,%zmm3

	vpxorq	%zmm5,%zmm4,%zmm4
	vpsrldq	$8,%zmm4,%zmm30
	vpslldq	$8,%zmm4,%zmm31
	vpxorq	%zmm30,%zmm0,%zmm0
	vpxorq	%zmm31,%zmm3,%zmm3
	vextracti64x4	$1,%zmm0,%ymm30
	vpxorq	%ymm30,%ymm0,%ymm0
	vextracti32x4	$1,%ymm0,%xmm30
	vpxorq	%xmm30,%xmm0,%xmm0
	vextracti64x4	$1,%zmm3,%ymm31
	vpxorq	%ymm31,%ymm3,%ymm3
	vextracti32x4	$1,%ymm3,%xmm31
	vpxorq	%xmm31,%xmm3,%xmm3
	vmovdqa64	POLY2(%rip),%xmm1


	vpclmulqdq	$0x01,%xmm3,%xmm1,%xmm4
	vpslldq	$8,%xmm4,%xmm4
	vpxorq	%xmm4,%xmm3,%xmm4


	vpclmulqdq	$0x00,%xmm4,%xmm1,%xmm5
	vpsrldq	$4,%xmm5,%xmm5
	vpclmulqdq	$0x10,%xmm4,%xmm1,%xmm14
	vpslldq	$4,%xmm14,%xmm14
	vpternlogq	$0x96,%xmm0,%xmm5,%xmm14

.L_small_initial_compute_done_pjFuoxuEbfheekB:

	orq	%r8,%r8
	je	.L_after_reduction_pjFuoxuEbfheekB
	vpxorq	%xmm7,%xmm14,%xmm14
.L_after_reduction_pjFuoxuEbfheekB:
	jmp	.L_last_blocks_done_iFdBmvaydAEvGwl
.L_last_num_blocks_is_12_iFdBmvaydAEvGwl:
	leaq	byte64_len_to_mask_table(%rip),%r10
	movq	%r8,%r11
	subq	$128,%r11
	kmovq	(%r10,%r11,8),%k1
	cmpl	$244,%r15d
	jae	.L_16_blocks_overflow_gAwDngvDtzqBarb
	vpaddd	%zmm28,%zmm2,%zmm0
	vpaddd	%zmm27,%zmm0,%zmm3
	vpaddd	%zmm27,%zmm3,%zmm4
	jmp	.L_16_blocks_ok_gAwDngvDtzqBarb

.L_16_blocks_overflow_gAwDngvDtzqBarb:
	vpshufb	%zmm29,%zmm2,%zmm2
	vpaddd	ddq_add_1234(%rip),%zmm2,%zmm0
	vmovdqa64	ddq_add_4444(%rip),%zmm5
	vpaddd	%zmm5,%zmm0,%zmm3
	vpaddd	%zmm5,%zmm3,%zmm4
	vpshufb	%zmm29,%zmm0,%zmm0
	vpshufb	%zmm29,%zmm3,%zmm3
	vpshufb	%zmm29,%zmm4,%zmm4
.L_16_blocks_ok_gAwDngvDtzqBarb:




	vbroadcastf64x2	0(%rdi),%zmm30
	vmovdqa64	1024(%rsp),%zmm8
	vmovdqu64	0(%rsp,%rbx,1),%zmm1
	vextracti32x4	$3,%zmm4,%xmm2
	vshufi64x2	$0,%zmm2,%zmm2,%zmm2


	vbroadcastf64x2	16(%rdi),%zmm31
	vmovdqu64	64(%rsp,%rbx,1),%zmm18
	vmovdqa64	1088(%rsp),%zmm22
	vpxorq	%zmm30,%zmm0,%zmm0
	vpxorq	%zmm30,%zmm3,%zmm3
	vpxorq	%zmm30,%zmm4,%zmm4
	vbroadcastf64x2	32(%rdi),%zmm30


	vpclmulqdq	$0x11,%zmm1,%zmm8,%zmm14
	vpclmulqdq	$0x00,%zmm1,%zmm8,%zmm7
	vpclmulqdq	$0x01,%zmm1,%zmm8,%zmm10
	vpclmulqdq	$0x10,%zmm1,%zmm8,%zmm11
	vmovdqu64	128(%rsp,%rbx,1),%zmm1
	vmovdqa64	1152(%rsp),%zmm8
	vaesenc	%zmm31,%zmm0,%zmm0
	vaesenc	%zmm31,%zmm3,%zmm3
	vaesenc	%zmm31,%zmm4,%zmm4
	vbroadcastf64x2	48(%rdi),%zmm31


	vpclmulqdq	$0x10,%zmm18,%zmm22,%zmm15
	vpclmulqdq	$0x01,%zmm18,%zmm22,%zmm16
	vpclmulqdq	$0x11,%zmm18,%zmm22,%zmm12
	vpclmulqdq	$0x00,%zmm18,%zmm22,%zmm13
	vmovdqu64	192(%rsp,%rbx,1),%zmm18
	vmovdqa64	1216(%rsp),%zmm22
	vaesenc	%zmm30,%zmm0,%zmm0
	vaesenc	%zmm30,%zmm3,%zmm3
	vaesenc	%zmm30,%zmm4,%zmm4
	vbroadcastf64x2	64(%rdi),%zmm30


	vpclmulqdq	$0x10,%zmm1,%zmm8,%zmm20
	vpclmulqdq	$0x01,%zmm1,%zmm8,%zmm21
	vpclmulqdq	$0x11,%zmm1,%zmm8,%zmm17
	vpclmulqdq	$0x00,%zmm1,%zmm8,%zmm19
	vaesenc	%zmm31,%zmm0,%zmm0
	vaesenc	%zmm31,%zmm3,%zmm3
	vaesenc	%zmm31,%zmm4,%zmm4
	vbroadcastf64x2	80(%rdi),%zmm31


	vpternlogq	$0x96,%zmm17,%zmm12,%zmm14
	vpternlogq	$0x96,%zmm19,%zmm13,%zmm7
	vpternlogq	$0x96,%zmm21,%zmm16,%zmm11
	vpternlogq	$0x96,%zmm20,%zmm15,%zmm10
	vaesenc	%zmm30,%zmm0,%zmm0
	vaesenc	%zmm30,%zmm3,%zmm3
	vaesenc	%zmm30,%zmm4,%zmm4
	vbroadcastf64x2	96(%rdi),%zmm30
	vmovdqu8	0(%rcx,%rax,1),%zmm17
	vmovdqu8	64(%rcx,%rax,1),%zmm19
	vmovdqu8	128(%rcx,%rax,1),%zmm20{%k1}{z}
	vaesenc	%zmm31,%zmm0,%zmm0
	vaesenc	%zmm31,%zmm3,%zmm3
	vaesenc	%zmm31,%zmm4,%zmm4
	vbroadcastf64x2	112(%rdi),%zmm31


	vpclmulqdq	$0x10,%zmm18,%zmm22,%zmm15
	vpclmulqdq	$0x01,%zmm18,%zmm22,%zmm16
	vpclmulqdq	$0x11,%zmm18,%zmm22,%zmm12
	vpclmulqdq	$0x00,%zmm18,%zmm22,%zmm13
	vaesenc	%zmm30,%zmm0,%zmm0
	vaesenc	%zmm30,%zmm3,%zmm3
	vaesenc	%zmm30,%zmm4,%zmm4
	vbroadcastf64x2	128(%rdi),%zmm30
	vpternlogq	$0x96,%zmm16,%zmm11,%zmm10
	vpternlogq	$0x96,%zmm12,%zmm14,%zmm24
	vpternlogq	$0x96,%zmm13,%zmm7,%zmm25
	vpternlogq	$0x96,%zmm15,%zmm10,%zmm26
	vaesenc	%zmm31,%zmm0,%zmm0
	vaesenc	%zmm31,%zmm3,%zmm3
	vaesenc	%zmm31,%zmm4,%zmm4
	vbroadcastf64x2	144(%rdi),%zmm31
	vaesenc	%zmm30,%zmm0,%zmm0
	vaesenc	%zmm30,%zmm3,%zmm3
	vaesenc	%zmm30,%zmm4,%zmm4
	vbroadcastf64x2	160(%rdi),%zmm30
	vaesenc	%zmm31,%zmm0,%zmm0
	vaesenc	%zmm31,%zmm3,%zmm3
	vaesenc	%zmm31,%zmm4,%zmm4
	vaesenclast	%zmm30,%zmm0,%zmm0
	vaesenclast	%zmm30,%zmm3,%zmm3
	vaesenclast	%zmm30,%zmm4,%zmm4
	vpxorq	%zmm17,%zmm0,%zmm0
	vpxorq	%zmm19,%zmm3,%zmm3
	vpxorq	%zmm20,%zmm4,%zmm4
	vextracti32x4	$3,%zmm4,%xmm11
	movq	%r9,%r10
	vmovdqu8	%zmm0,0(%r10,%rax,1)
	vmovdqu8	%zmm3,64(%r10,%rax,1)
	vmovdqu8	%zmm4,128(%r10,%rax,1){%k1}
	vmovdqu8	%zmm4,%zmm4{%k1}{z}
	vpshufb	%zmm29,%zmm0,%zmm17
	vpshufb	%zmm29,%zmm3,%zmm19
	vpshufb	%zmm29,%zmm4,%zmm20
	vextracti32x4	$3,%zmm20,%xmm7
	leaq	96(%rsi),%r10
	subq	$16 * (12 - 1),%r8


	cmpq	$16,%r8
	jl	.L_small_initial_partial_block_hrmzeABkkEvismk





	subq	$16,%r8
	movl	$0,(%rdx)
	vmovdqu64	64(%r10),%zmm1
	vpclmulqdq	$0x11,%zmm1,%zmm17,%zmm0
	vpclmulqdq	$0x00,%zmm1,%zmm17,%zmm3
	vpclmulqdq	$0x01,%zmm1,%zmm17,%zmm4
	vpclmulqdq	$0x10,%zmm1,%zmm17,%zmm5
	vmovdqu64	128(%r10),%zmm1
	vpclmulqdq	$0x11,%zmm1,%zmm19,%zmm8
	vpclmulqdq	$0x00,%zmm1,%zmm19,%zmm22
	vpclmulqdq	$0x01,%zmm1,%zmm19,%zmm30
	vpclmulqdq	$0x10,%zmm1,%zmm19,%zmm31
	vmovdqu64	192(%r10),%zmm1
	vpclmulqdq	$0x11,%zmm1,%zmm20,%zmm17
	vpclmulqdq	$0x00,%zmm1,%zmm20,%zmm19
	vpternlogq	$0x96,%zmm0,%zmm17,%zmm8
	vpternlogq	$0x96,%zmm3,%zmm19,%zmm22
	vpclmulqdq	$0x01,%zmm1,%zmm20,%zmm17
	vpclmulqdq	$0x10,%zmm1,%zmm20,%zmm19
	vpternlogq	$0x96,%zmm4,%zmm17,%zmm30
	vpternlogq	$0x96,%zmm5,%zmm19,%zmm31

	vpxorq	%zmm26,%zmm30,%zmm30
	vpxorq	%zmm24,%zmm8,%zmm8
	vpxorq	%zmm25,%zmm22,%zmm22

	vpxorq	%zmm31,%zmm30,%zmm30
	vpsrldq	$8,%zmm30,%zmm4
	vpslldq	$8,%zmm30,%zmm5
	vpxorq	%zmm4,%zmm8,%zmm0
	vpxorq	%zmm5,%zmm22,%zmm3
	vextracti64x4	$1,%zmm0,%ymm30
	vpxorq	%ymm30,%ymm0,%ymm0
	vextracti32x4	$1,%ymm0,%xmm30
	vpxorq	%xmm30,%xmm0,%xmm0
	vextracti64x4	$1,%zmm3,%ymm31
	vpxorq	%ymm31,%ymm3,%ymm3
	vextracti32x4	$1,%ymm3,%xmm31
	vpxorq	%xmm31,%xmm3,%xmm3
	vmovdqa64	POLY2(%rip),%xmm1


	vpclmulqdq	$0x01,%xmm3,%xmm1,%xmm4
	vpslldq	$8,%xmm4,%xmm4
	vpxorq	%xmm4,%xmm3,%xmm4


	vpclmulqdq	$0x00,%xmm4,%xmm1,%xmm5
	vpsrldq	$4,%xmm5,%xmm5
	vpclmulqdq	$0x10,%xmm4,%xmm1,%xmm14
	vpslldq	$4,%xmm14,%xmm14
	vpternlogq	$0x96,%xmm0,%xmm5,%xmm14

	jmp	.L_small_initial_compute_done_hrmzeABkkEvismk
.L_small_initial_partial_block_hrmzeABkkEvismk:








	movl	%r8d,(%rdx)
	vmovdqu64	%xmm11,16(%rsi)
	vmovdqu64	80(%r10),%zmm1
	vpclmulqdq	$0x11,%zmm1,%zmm17,%zmm0
	vpclmulqdq	$0x00,%zmm1,%zmm17,%zmm3
	vpclmulqdq	$0x01,%zmm1,%zmm17,%zmm4
	vpclmulqdq	$0x10,%zmm1,%zmm17,%zmm5
	vmovdqu64	144(%r10),%zmm1
	vpclmulqdq	$0x11,%zmm1,%zmm19,%zmm8
	vpclmulqdq	$0x00,%zmm1,%zmm19,%zmm22
	vpclmulqdq	$0x01,%zmm1,%zmm19,%zmm30
	vpclmulqdq	$0x10,%zmm1,%zmm19,%zmm31
	vpxorq	%zmm8,%zmm0,%zmm8
	vpxorq	%zmm22,%zmm3,%zmm22
	vpxorq	%zmm30,%zmm4,%zmm30
	vpxorq	%zmm31,%zmm5,%zmm31
	vmovdqu64	208(%r10),%ymm1
	vinserti64x2	$2,240(%r10),%zmm1,%zmm1
	vpclmulqdq	$0x01,%zmm1,%zmm20,%zmm4
	vpclmulqdq	$0x10,%zmm1,%zmm20,%zmm5
	vpclmulqdq	$0x11,%zmm1,%zmm20,%zmm0
	vpclmulqdq	$0x00,%zmm1,%zmm20,%zmm3

	vpxorq	%zmm30,%zmm4,%zmm4
	vpternlogq	$0x96,%zmm31,%zmm26,%zmm5
	vpternlogq	$0x96,%zmm8,%zmm24,%zmm0
	vpternlogq	$0x96,%zmm22,%zmm25,%zmm3

	vpxorq	%zmm5,%zmm4,%zmm4
	vpsrldq	$8,%zmm4,%zmm30
	vpslldq	$8,%zmm4,%zmm31
	vpxorq	%zmm30,%zmm0,%zmm0
	vpxorq	%zmm31,%zmm3,%zmm3
	vextracti64x4	$1,%zmm0,%ymm30
	vpxorq	%ymm30,%ymm0,%ymm0
	vextracti32x4	$1,%ymm0,%xmm30
	vpxorq	%xmm30,%xmm0,%xmm0
	vextracti64x4	$1,%zmm3,%ymm31
	vpxorq	%ymm31,%ymm3,%ymm3
	vextracti32x4	$1,%ymm3,%xmm31
	vpxorq	%xmm31,%xmm3,%xmm3
	vmovdqa64	POLY2(%rip),%xmm1


	vpclmulqdq	$0x01,%xmm3,%xmm1,%xmm4
	vpslldq	$8,%xmm4,%xmm4
	vpxorq	%xmm4,%xmm3,%xmm4


	vpclmulqdq	$0x00,%xmm4,%xmm1,%xmm5
	vpsrldq	$4,%xmm5,%xmm5
	vpclmulqdq	$0x10,%xmm4,%xmm1,%xmm14
	vpslldq	$4,%xmm14,%xmm14
	vpternlogq	$0x96,%xmm0,%xmm5,%xmm14

.L_small_initial_compute_done_hrmzeABkkEvismk:

	orq	%r8,%r8
	je	.L_after_reduction_hrmzeABkkEvismk
	vpxorq	%xmm7,%xmm14,%xmm14
.L_after_reduction_hrmzeABkkEvismk:
	jmp	.L_last_blocks_done_iFdBmvaydAEvGwl
.L_last_num_blocks_is_13_iFdBmvaydAEvGwl:
	leaq	byte64_len_to_mask_table(%rip),%r10
	movq	%r8,%r11
	subq	$192,%r11
	kmovq	(%r10,%r11,8),%k1
	cmpl	$243,%r15d
	jae	.L_16_blocks_overflow_FDywvCjwtmzAnDv
	vpaddd	%zmm28,%zmm2,%zmm0
	vpaddd	%zmm27,%zmm0,%zmm3
	vpaddd	%zmm27,%zmm3,%zmm4
	vpaddd	%xmm27,%xmm4,%xmm5
	jmp	.L_16_blocks_ok_FDywvCjwtmzAnDv

.L_16_blocks_overflow_FDywvCjwtmzAnDv:
	vpshufb	%zmm29,%zmm2,%zmm2
	vpaddd	ddq_add_1234(%rip),%zmm2,%zmm0
	vmovdqa64	ddq_add_4444(%rip),%zmm5
	vpaddd	%zmm5,%zmm0,%zmm3
	vpaddd	%zmm5,%zmm3,%zmm4
	vpaddd	%zmm5,%zmm4,%zmm5
	vpshufb	%zmm29,%zmm0,%zmm0
	vpshufb	%zmm29,%zmm3,%zmm3
	vpshufb	%zmm29,%zmm4,%zmm4
	vpshufb	%xmm29,%xmm5,%xmm5
.L_16_blocks_ok_FDywvCjwtmzAnDv:




	vbroadcastf64x2	0(%rdi),%zmm30
	vmovdqa64	1024(%rsp),%zmm8
	vmovdqu64	0(%rsp,%rbx,1),%zmm1
	vextracti32x4	$0,%zmm5,%xmm2
	vshufi64x2	$0,%zmm2,%zmm2,%zmm2


	vbroadcastf64x2	16(%rdi),%zmm31
	vmovdqu64	64(%rsp,%rbx,1),%zmm18
	vmovdqa64	1088(%rsp),%zmm22
	vpxorq	%zmm30,%zmm0,%zmm0
	vpxorq	%zmm30,%zmm3,%zmm3
	vpxorq	%zmm30,%zmm4,%zmm4
	vpxorq	%xmm30,%xmm5,%xmm5
	vbroadcastf64x2	32(%rdi),%zmm30


	vpclmulqdq	$0x11,%zmm1,%zmm8,%zmm14
	vpclmulqdq	$0x00,%zmm1,%zmm8,%zmm7
	vpclmulqdq	$0x01,%zmm1,%zmm8,%zmm10
	vpclmulqdq	$0x10,%zmm1,%zmm8,%zmm11
	vmovdqu64	128(%rsp,%rbx,1),%zmm1
	vmovdqa64	1152(%rsp),%zmm8
	vaesenc	%zmm31,%zmm0,%zmm0
	vaesenc	%zmm31,%zmm3,%zmm3
	vaesenc	%zmm31,%zmm4,%zmm4
	vaesenc	%xmm31,%xmm5,%xmm5
	vbroadcastf64x2	48(%rdi),%zmm31


	vpclmulqdq	$0x10,%zmm18,%zmm22,%zmm15
	vpclmulqdq	$0x01,%zmm18,%zmm22,%zmm16
	vpclmulqdq	$0x11,%zmm18,%zmm22,%zmm12
	vpclmulqdq	$0x00,%zmm18,%zmm22,%zmm13
	vmovdqu64	192(%rsp,%rbx,1),%zmm18
	vmovdqa64	1216(%rsp),%zmm22
	vaesenc	%zmm30,%zmm0,%zmm0
	vaesenc	%zmm30,%zmm3,%zmm3
	vaesenc	%zmm30,%zmm4,%zmm4
	vaesenc	%xmm30,%xmm5,%xmm5
	vbroadcastf64x2	64(%rdi),%zmm30


	vpclmulqdq	$0x10,%zmm1,%zmm8,%zmm20
	vpclmulqdq	$0x01,%zmm1,%zmm8,%zmm21
	vpclmulqdq	$0x11,%zmm1,%zmm8,%zmm17
	vpclmulqdq	$0x00,%zmm1,%zmm8,%zmm19
	vaesenc	%zmm31,%zmm0,%zmm0
	vaesenc	%zmm31,%zmm3,%zmm3
	vaesenc	%zmm31,%zmm4,%zmm4
	vaesenc	%xmm31,%xmm5,%xmm5
	vbroadcastf64x2	80(%rdi),%zmm31


	vpternlogq	$0x96,%zmm17,%zmm12,%zmm14
	vpternlogq	$0x96,%zmm19,%zmm13,%zmm7
	vpternlogq	$0x96,%zmm21,%zmm16,%zmm11
	vpternlogq	$0x96,%zmm20,%zmm15,%zmm10
	vaesenc	%zmm30,%zmm0,%zmm0
	vaesenc	%zmm30,%zmm3,%zmm3
	vaesenc	%zmm30,%zmm4,%zmm4
	vaesenc	%xmm30,%xmm5,%xmm5
	vbroadcastf64x2	96(%rdi),%zmm30
	vmovdqu8	0(%rcx,%rax,1),%zmm17
	vmovdqu8	64(%rcx,%rax,1),%zmm19
	vmovdqu8	128(%rcx,%rax,1),%zmm20
	vmovdqu8	192(%rcx,%rax,1),%xmm21{%k1}{z}
	vaesenc	%zmm31,%zmm0,%zmm0
	vaesenc	%zmm31,%zmm3,%zmm3
	vaesenc	%zmm31,%zmm4,%zmm4
	vaesenc	%xmm31,%xmm5,%xmm5
	vbroadcastf64x2	112(%rdi),%zmm31


	vpclmulqdq	$0x10,%zmm18,%zmm22,%zmm15
	vpclmulqdq	$0x01,%zmm18,%zmm22,%zmm16
	vpclmulqdq	$0x11,%zmm18,%zmm22,%zmm12
	vpclmulqdq	$0x00,%zmm18,%zmm22,%zmm13
	vaesenc	%zmm30,%zmm0,%zmm0
	vaesenc	%zmm30,%zmm3,%zmm3
	vaesenc	%zmm30,%zmm4,%zmm4
	vaesenc	%xmm30,%xmm5,%xmm5
	vbroadcastf64x2	128(%rdi),%zmm30
	vpternlogq	$0x96,%zmm16,%zmm11,%zmm10
	vpternlogq	$0x96,%zmm12,%zmm14,%zmm24
	vpternlogq	$0x96,%zmm13,%zmm7,%zmm25
	vpternlogq	$0x96,%zmm15,%zmm10,%zmm26
	vaesenc	%zmm31,%zmm0,%zmm0
	vaesenc	%zmm31,%zmm3,%zmm3
	vaesenc	%zmm31,%zmm4,%zmm4
	vaesenc	%xmm31,%xmm5,%xmm5
	vbroadcastf64x2	144(%rdi),%zmm31
	vaesenc	%zmm30,%zmm0,%zmm0
	vaesenc	%zmm30,%zmm3,%zmm3
	vaesenc	%zmm30,%zmm4,%zmm4
	vaesenc	%xmm30,%xmm5,%xmm5
	vbroadcastf64x2	160(%rdi),%zmm30
	vaesenc	%zmm31,%zmm0,%zmm0
	vaesenc	%zmm31,%zmm3,%zmm3
	vaesenc	%zmm31,%zmm4,%zmm4
	vaesenc	%xmm31,%xmm5,%xmm5
	vaesenclast	%zmm30,%zmm0,%zmm0
	vaesenclast	%zmm30,%zmm3,%zmm3
	vaesenclast	%zmm30,%zmm4,%zmm4
	vaesenclast	%xmm30,%xmm5,%xmm5
	vpxorq	%zmm17,%zmm0,%zmm0
	vpxorq	%zmm19,%zmm3,%zmm3
	vpxorq	%zmm20,%zmm4,%zmm4
	vpxorq	%xmm21,%xmm5,%xmm5
	vextracti32x4	$0,%zmm5,%xmm11
	movq	%r9,%r10
	vmovdqu8	%zmm0,0(%r10,%rax,1)
	vmovdqu8	%zmm3,64(%r10,%rax,1)
	vmovdqu8	%zmm4,128(%r10,%rax,1)
	vmovdqu8	%xmm5,192(%r10,%rax,1){%k1}
	vmovdqu8	%zmm5,%zmm5{%k1}{z}
	vpshufb	%zmm29,%zmm0,%zmm17
	vpshufb	%zmm29,%zmm3,%zmm19
	vpshufb	%zmm29,%zmm4,%zmm20
	vpshufb	%xmm29,%xmm5,%xmm21
	vextracti32x4	$0,%zmm21,%xmm7
	leaq	96(%rsi),%r10
	subq	$16 * (13 - 1),%r8


	cmpq	$16,%r8
	jl	.L_small_initial_partial_block_dwsFsGeFghyBCoj





	subq	$16,%r8
	movl	$0,(%rdx)
	vmovdqu64	48(%r10),%zmm1
	vpclmulqdq	$0x11,%zmm1,%zmm17,%zmm0
	vpclmulqdq	$0x00,%zmm1,%zmm17,%zmm3
	vpclmulqdq	$0x01,%zmm1,%zmm17,%zmm4
	vpclmulqdq	$0x10,%zmm1,%zmm17,%zmm5
	vmovdqu64	112(%r10),%zmm1
	vpclmulqdq	$0x11,%zmm1,%zmm19,%zmm8
	vpclmulqdq	$0x00,%zmm1,%zmm19,%zmm22
	vpclmulqdq	$0x01,%zmm1,%zmm19,%zmm30
	vpclmulqdq	$0x10,%zmm1,%zmm19,%zmm31
	vmovdqu64	176(%r10),%zmm1
	vpclmulqdq	$0x11,%zmm1,%zmm20,%zmm17
	vpclmulqdq	$0x00,%zmm1,%zmm20,%zmm19
	vpternlogq	$0x96,%zmm0,%zmm17,%zmm8
	vpternlogq	$0x96,%zmm3,%zmm19,%zmm22
	vpclmulqdq	$0x01,%zmm1,%zmm20,%zmm17
	vpclmulqdq	$0x10,%zmm1,%zmm20,%zmm19
	vpternlogq	$0x96,%zmm4,%zmm17,%zmm30
	vpternlogq	$0x96,%zmm5,%zmm19,%zmm31
	vmovdqu64	240(%r10),%xmm1
	vpclmulqdq	$0x01,%xmm1,%xmm21,%xmm4
	vpclmulqdq	$0x10,%xmm1,%xmm21,%xmm5
	vpclmulqdq	$0x11,%xmm1,%xmm21,%xmm0
	vpclmulqdq	$0x00,%xmm1,%xmm21,%xmm3

	vpxorq	%zmm30,%zmm4,%zmm4
	vpternlogq	$0x96,%zmm31,%zmm26,%zmm5
	vpternlogq	$0x96,%zmm8,%zmm24,%zmm0
	vpternlogq	$0x96,%zmm22,%zmm25,%zmm3

	vpxorq	%zmm5,%zmm4,%zmm4
	vpsrldq	$8,%zmm4,%zmm30
	vpslldq	$8,%zmm4,%zmm31
	vpxorq	%zmm30,%zmm0,%zmm0
	vpxorq	%zmm31,%zmm3,%zmm3
	vextracti64x4	$1,%zmm0,%ymm30
	vpxorq	%ymm30,%ymm0,%ymm0
	vextracti32x4	$1,%ymm0,%xmm30
	vpxorq	%xmm30,%xmm0,%xmm0
	vextracti64x4	$1,%zmm3,%ymm31
	vpxorq	%ymm31,%ymm3,%ymm3
	vextracti32x4	$1,%ymm3,%xmm31
	vpxorq	%xmm31,%xmm3,%xmm3
	vmovdqa64	POLY2(%rip),%xmm1


	vpclmulqdq	$0x01,%xmm3,%xmm1,%xmm4
	vpslldq	$8,%xmm4,%xmm4
	vpxorq	%xmm4,%xmm3,%xmm4


	vpclmulqdq	$0x00,%xmm4,%xmm1,%xmm5
	vpsrldq	$4,%xmm5,%xmm5
	vpclmulqdq	$0x10,%xmm4,%xmm1,%xmm14
	vpslldq	$4,%xmm14,%xmm14
	vpternlogq	$0x96,%xmm0,%xmm5,%xmm14

	jmp	.L_small_initial_compute_done_dwsFsGeFghyBCoj
.L_small_initial_partial_block_dwsFsGeFghyBCoj:








	movl	%r8d,(%rdx)
	vmovdqu64	%xmm11,16(%rsi)
	vmovdqu64	64(%r10),%zmm1
	vpclmulqdq	$0x11,%zmm1,%zmm17,%zmm0
	vpclmulqdq	$0x00,%zmm1,%zmm17,%zmm3
	vpclmulqdq	$0x01,%zmm1,%zmm17,%zmm4
	vpclmulqdq	$0x10,%zmm1,%zmm17,%zmm5
	vmovdqu64	128(%r10),%zmm1
	vpclmulqdq	$0x11,%zmm1,%zmm19,%zmm8
	vpclmulqdq	$0x00,%zmm1,%zmm19,%zmm22
	vpclmulqdq	$0x01,%zmm1,%zmm19,%zmm30
	vpclmulqdq	$0x10,%zmm1,%zmm19,%zmm31
	vmovdqu64	192(%r10),%zmm1
	vpclmulqdq	$0x11,%zmm1,%zmm20,%zmm17
	vpclmulqdq	$0x00,%zmm1,%zmm20,%zmm19
	vpternlogq	$0x96,%zmm0,%zmm17,%zmm8
	vpternlogq	$0x96,%zmm3,%zmm19,%zmm22
	vpclmulqdq	$0x01,%zmm1,%zmm20,%zmm17
	vpclmulqdq	$0x10,%zmm1,%zmm20,%zmm19
	vpternlogq	$0x96,%zmm4,%zmm17,%zmm30
	vpternlogq	$0x96,%zmm5,%zmm19,%zmm31

	vpxorq	%zmm26,%zmm30,%zmm30
	vpxorq	%zmm24,%zmm8,%zmm8
	vpxorq	%zmm25,%zmm22,%zmm22

	vpxorq	%zmm31,%zmm30,%zmm30
	vpsrldq	$8,%zmm30,%zmm4
	vpslldq	$8,%zmm30,%zmm5
	vpxorq	%zmm4,%zmm8,%zmm0
	vpxorq	%zmm5,%zmm22,%zmm3
	vextracti64x4	$1,%zmm0,%ymm30
	vpxorq	%ymm30,%ymm0,%ymm0
	vextracti32x4	$1,%ymm0,%xmm30
	vpxorq	%xmm30,%xmm0,%xmm0
	vextracti64x4	$1,%zmm3,%ymm31
	vpxorq	%ymm31,%ymm3,%ymm3
	vextracti32x4	$1,%ymm3,%xmm31
	vpxorq	%xmm31,%xmm3,%xmm3
	vmovdqa64	POLY2(%rip),%xmm1


	vpclmulqdq	$0x01,%xmm3,%xmm1,%xmm4
	vpslldq	$8,%xmm4,%xmm4
	vpxorq	%xmm4,%xmm3,%xmm4


	vpclmulqdq	$0x00,%xmm4,%xmm1,%xmm5
	vpsrldq	$4,%xmm5,%xmm5
	vpclmulqdq	$0x10,%xmm4,%xmm1,%xmm14
	vpslldq	$4,%xmm14,%xmm14
	vpternlogq	$0x96,%xmm0,%xmm5,%xmm14

.L_small_initial_compute_done_dwsFsGeFghyBCoj:

	orq	%r8,%r8
	je	.L_after_reduction_dwsFsGeFghyBCoj
	vpxorq	%xmm7,%xmm14,%xmm14
.L_after_reduction_dwsFsGeFghyBCoj:
	jmp	.L_last_blocks_done_iFdBmvaydAEvGwl
.L_last_num_blocks_is_14_iFdBmvaydAEvGwl:
	leaq	byte64_len_to_mask_table(%rip),%r10
	movq	%r8,%r11
	subq	$192,%r11
	kmovq	(%r10,%r11,8),%k1
	cmpl	$242,%r15d
	jae	.L_16_blocks_overflow_uqFvxczAyqeDetg
	vpaddd	%zmm28,%zmm2,%zmm0
	vpaddd	%zmm27,%zmm0,%zmm3
	vpaddd	%zmm27,%zmm3,%zmm4
	vpaddd	%ymm27,%ymm4,%ymm5
	jmp	.L_16_blocks_ok_uqFvxczAyqeDetg

.L_16_blocks_overflow_uqFvxczAyqeDetg:
	vpshufb	%zmm29,%zmm2,%zmm2
	vpaddd	ddq_add_1234(%rip),%zmm2,%zmm0
	vmovdqa64	ddq_add_4444(%rip),%zmm5
	vpaddd	%zmm5,%zmm0,%zmm3
	vpaddd	%zmm5,%zmm3,%zmm4
	vpaddd	%zmm5,%zmm4,%zmm5
	vpshufb	%zmm29,%zmm0,%zmm0
	vpshufb	%zmm29,%zmm3,%zmm3
	vpshufb	%zmm29,%zmm4,%zmm4
	vpshufb	%ymm29,%ymm5,%ymm5
.L_16_blocks_ok_uqFvxczAyqeDetg:




	vbroadcastf64x2	0(%rdi),%zmm30
	vmovdqa64	1024(%rsp),%zmm8
	vmovdqu64	0(%rsp,%rbx,1),%zmm1
	vextracti32x4	$1,%zmm5,%xmm2
	vshufi64x2	$0,%zmm2,%zmm2,%zmm2


	vbroadcastf64x2	16(%rdi),%zmm31
	vmovdqu64	64(%rsp,%rbx,1),%zmm18
	vmovdqa64	1088(%rsp),%zmm22
	vpxorq	%zmm30,%zmm0,%zmm0
	vpxorq	%zmm30,%zmm3,%zmm3
	vpxorq	%zmm30,%zmm4,%zmm4
	vpxorq	%ymm30,%ymm5,%ymm5
	vbroadcastf64x2	32(%rdi),%zmm30


	vpclmulqdq	$0x11,%zmm1,%zmm8,%zmm14
	vpclmulqdq	$0x00,%zmm1,%zmm8,%zmm7
	vpclmulqdq	$0x01,%zmm1,%zmm8,%zmm10
	vpclmulqdq	$0x10,%zmm1,%zmm8,%zmm11
	vmovdqu64	128(%rsp,%rbx,1),%zmm1
	vmovdqa64	1152(%rsp),%zmm8
	vaesenc	%zmm31,%zmm0,%zmm0
	vaesenc	%zmm31,%zmm3,%zmm3
	vaesenc	%zmm31,%zmm4,%zmm4
	vaesenc	%ymm31,%ymm5,%ymm5
	vbroadcastf64x2	48(%rdi),%zmm31


	vpclmulqdq	$0x10,%zmm18,%zmm22,%zmm15
	vpclmulqdq	$0x01,%zmm18,%zmm22,%zmm16
	vpclmulqdq	$0x11,%zmm18,%zmm22,%zmm12
	vpclmulqdq	$0x00,%zmm18,%zmm22,%zmm13
	vmovdqu64	192(%rsp,%rbx,1),%zmm18
	vmovdqa64	1216(%rsp),%zmm22
	vaesenc	%zmm30,%zmm0,%zmm0
	vaesenc	%zmm30,%zmm3,%zmm3
	vaesenc	%zmm30,%zmm4,%zmm4
	vaesenc	%ymm30,%ymm5,%ymm5
	vbroadcastf64x2	64(%rdi),%zmm30


	vpclmulqdq	$0x10,%zmm1,%zmm8,%zmm20
	vpclmulqdq	$0x01,%zmm1,%zmm8,%zmm21
	vpclmulqdq	$0x11,%zmm1,%zmm8,%zmm17
	vpclmulqdq	$0x00,%zmm1,%zmm8,%zmm19
	vaesenc	%zmm31,%zmm0,%zmm0
	vaesenc	%zmm31,%zmm3,%zmm3
	vaesenc	%zmm31,%zmm4,%zmm4
	vaesenc	%ymm31,%ymm5,%ymm5
	vbroadcastf64x2	80(%rdi),%zmm31


	vpternlogq	$0x96,%zmm17,%zmm12,%zmm14
	vpternlogq	$0x96,%zmm19,%zmm13,%zmm7
	vpternlogq	$0x96,%zmm21,%zmm16,%zmm11
	vpternlogq	$0x96,%zmm20,%zmm15,%zmm10
	vaesenc	%zmm30,%zmm0,%zmm0
	vaesenc	%zmm30,%zmm3,%zmm3
	vaesenc	%zmm30,%zmm4,%zmm4
	vaesenc	%ymm30,%ymm5,%ymm5
	vbroadcastf64x2	96(%rdi),%zmm30
	vmovdqu8	0(%rcx,%rax,1),%zmm17
	vmovdqu8	64(%rcx,%rax,1),%zmm19
	vmovdqu8	128(%rcx,%rax,1),%zmm20
	vmovdqu8	192(%rcx,%rax,1),%ymm21{%k1}{z}
	vaesenc	%zmm31,%zmm0,%zmm0
	vaesenc	%zmm31,%zmm3,%zmm3
	vaesenc	%zmm31,%zmm4,%zmm4
	vaesenc	%ymm31,%ymm5,%ymm5
	vbroadcastf64x2	112(%rdi),%zmm31


	vpclmulqdq	$0x10,%zmm18,%zmm22,%zmm15
	vpclmulqdq	$0x01,%zmm18,%zmm22,%zmm16
	vpclmulqdq	$0x11,%zmm18,%zmm22,%zmm12
	vpclmulqdq	$0x00,%zmm18,%zmm22,%zmm13
	vaesenc	%zmm30,%zmm0,%zmm0
	vaesenc	%zmm30,%zmm3,%zmm3
	vaesenc	%zmm30,%zmm4,%zmm4
	vaesenc	%ymm30,%ymm5,%ymm5
	vbroadcastf64x2	128(%rdi),%zmm30
	vpternlogq	$0x96,%zmm16,%zmm11,%zmm10
	vpternlogq	$0x96,%zmm12,%zmm14,%zmm24
	vpternlogq	$0x96,%zmm13,%zmm7,%zmm25
	vpternlogq	$0x96,%zmm15,%zmm10,%zmm26
	vaesenc	%zmm31,%zmm0,%zmm0
	vaesenc	%zmm31,%zmm3,%zmm3
	vaesenc	%zmm31,%zmm4,%zmm4
	vaesenc	%ymm31,%ymm5,%ymm5
	vbroadcastf64x2	144(%rdi),%zmm31
	vaesenc	%zmm30,%zmm0,%zmm0
	vaesenc	%zmm30,%zmm3,%zmm3
	vaesenc	%zmm30,%zmm4,%zmm4
	vaesenc	%ymm30,%ymm5,%ymm5
	vbroadcastf64x2	160(%rdi),%zmm30
	vaesenc	%zmm31,%zmm0,%zmm0
	vaesenc	%zmm31,%zmm3,%zmm3
	vaesenc	%zmm31,%zmm4,%zmm4
	vaesenc	%ymm31,%ymm5,%ymm5
	vaesenclast	%zmm30,%zmm0,%zmm0
	vaesenclast	%zmm30,%zmm3,%zmm3
	vaesenclast	%zmm30,%zmm4,%zmm4
	vaesenclast	%ymm30,%ymm5,%ymm5
	vpxorq	%zmm17,%zmm0,%zmm0
	vpxorq	%zmm19,%zmm3,%zmm3
	vpxorq	%zmm20,%zmm4,%zmm4
	vpxorq	%ymm21,%ymm5,%ymm5
	vextracti32x4	$1,%zmm5,%xmm11
	movq	%r9,%r10
	vmovdqu8	%zmm0,0(%r10,%rax,1)
	vmovdqu8	%zmm3,64(%r10,%rax,1)
	vmovdqu8	%zmm4,128(%r10,%rax,1)
	vmovdqu8	%ymm5,192(%r10,%rax,1){%k1}
	vmovdqu8	%zmm5,%zmm5{%k1}{z}
	vpshufb	%zmm29,%zmm0,%zmm17
	vpshufb	%zmm29,%zmm3,%zmm19
	vpshufb	%zmm29,%zmm4,%zmm20
	vpshufb	%ymm29,%ymm5,%ymm21
	vextracti32x4	$1,%zmm21,%xmm7
	leaq	96(%rsi),%r10
	subq	$16 * (14 - 1),%r8


	cmpq	$16,%r8
	jl	.L_small_initial_partial_block_joAwelAnEceibxf





	subq	$16,%r8
	movl	$0,(%rdx)
	vmovdqu64	32(%r10),%zmm1
	vpclmulqdq	$0x11,%zmm1,%zmm17,%zmm0
	vpclmulqdq	$0x00,%zmm1,%zmm17,%zmm3
	vpclmulqdq	$0x01,%zmm1,%zmm17,%zmm4
	vpclmulqdq	$0x10,%zmm1,%zmm17,%zmm5
	vmovdqu64	96(%r10),%zmm1
	vpclmulqdq	$0x11,%zmm1,%zmm19,%zmm8
	vpclmulqdq	$0x00,%zmm1,%zmm19,%zmm22
	vpclmulqdq	$0x01,%zmm1,%zmm19,%zmm30
	vpclmulqdq	$0x10,%zmm1,%zmm19,%zmm31
	vmovdqu64	160(%r10),%zmm1
	vpclmulqdq	$0x11,%zmm1,%zmm20,%zmm17
	vpclmulqdq	$0x00,%zmm1,%zmm20,%zmm19
	vpternlogq	$0x96,%zmm0,%zmm17,%zmm8
	vpternlogq	$0x96,%zmm3,%zmm19,%zmm22
	vpclmulqdq	$0x01,%zmm1,%zmm20,%zmm17
	vpclmulqdq	$0x10,%zmm1,%zmm20,%zmm19
	vpternlogq	$0x96,%zmm4,%zmm17,%zmm30
	vpternlogq	$0x96,%zmm5,%zmm19,%zmm31
	vmovdqu64	224(%r10),%ymm1
	vpclmulqdq	$0x01,%ymm1,%ymm21,%ymm4
	vpclmulqdq	$0x10,%ymm1,%ymm21,%ymm5
	vpclmulqdq	$0x11,%ymm1,%ymm21,%ymm0
	vpclmulqdq	$0x00,%ymm1,%ymm21,%ymm3

	vpxorq	%zmm30,%zmm4,%zmm4
	vpternlogq	$0x96,%zmm31,%zmm26,%zmm5
	vpternlogq	$0x96,%zmm8,%zmm24,%zmm0
	vpternlogq	$0x96,%zmm22,%zmm25,%zmm3

	vpxorq	%zmm5,%zmm4,%zmm4
	vpsrldq	$8,%zmm4,%zmm30
	vpslldq	$8,%zmm4,%zmm31
	vpxorq	%zmm30,%zmm0,%zmm0
	vpxorq	%zmm31,%zmm3,%zmm3
	vextracti64x4	$1,%zmm0,%ymm30
	vpxorq	%ymm30,%ymm0,%ymm0
	vextracti32x4	$1,%ymm0,%xmm30
	vpxorq	%xmm30,%xmm0,%xmm0
	vextracti64x4	$1,%zmm3,%ymm31
	vpxorq	%ymm31,%ymm3,%ymm3
	vextracti32x4	$1,%ymm3,%xmm31
	vpxorq	%xmm31,%xmm3,%xmm3
	vmovdqa64	POLY2(%rip),%xmm1


	vpclmulqdq	$0x01,%xmm3,%xmm1,%xmm4
	vpslldq	$8,%xmm4,%xmm4
	vpxorq	%xmm4,%xmm3,%xmm4


	vpclmulqdq	$0x00,%xmm4,%xmm1,%xmm5
	vpsrldq	$4,%xmm5,%xmm5
	vpclmulqdq	$0x10,%xmm4,%xmm1,%xmm14
	vpslldq	$4,%xmm14,%xmm14
	vpternlogq	$0x96,%xmm0,%xmm5,%xmm14

	jmp	.L_small_initial_compute_done_joAwelAnEceibxf
.L_small_initial_partial_block_joAwelAnEceibxf:








	movl	%r8d,(%rdx)
	vmovdqu64	%xmm11,16(%rsi)
	vmovdqu64	48(%r10),%zmm1
	vpclmulqdq	$0x11,%zmm1,%zmm17,%zmm0
	vpclmulqdq	$0x00,%zmm1,%zmm17,%zmm3
	vpclmulqdq	$0x01,%zmm1,%zmm17,%zmm4
	vpclmulqdq	$0x10,%zmm1,%zmm17,%zmm5
	vmovdqu64	112(%r10),%zmm1
	vpclmulqdq	$0x11,%zmm1,%zmm19,%zmm8
	vpclmulqdq	$0x00,%zmm1,%zmm19,%zmm22
	vpclmulqdq	$0x01,%zmm1,%zmm19,%zmm30
	vpclmulqdq	$0x10,%zmm1,%zmm19,%zmm31
	vmovdqu64	176(%r10),%zmm1
	vpclmulqdq	$0x11,%zmm1,%zmm20,%zmm17
	vpclmulqdq	$0x00,%zmm1,%zmm20,%zmm19
	vpternlogq	$0x96,%zmm0,%zmm17,%zmm8
	vpternlogq	$0x96,%zmm3,%zmm19,%zmm22
	vpclmulqdq	$0x01,%zmm1,%zmm20,%zmm17
	vpclmulqdq	$0x10,%zmm1,%zmm20,%zmm19
	vpternlogq	$0x96,%zmm4,%zmm17,%zmm30
	vpternlogq	$0x96,%zmm5,%zmm19,%zmm31
	vmovdqu64	240(%r10),%xmm1
	vpclmulqdq	$0x01,%xmm1,%xmm21,%xmm4
	vpclmulqdq	$0x10,%xmm1,%xmm21,%xmm5
	vpclmulqdq	$0x11,%xmm1,%xmm21,%xmm0
	vpclmulqdq	$0x00,%xmm1,%xmm21,%xmm3

	vpxorq	%zmm30,%zmm4,%zmm4
	vpternlogq	$0x96,%zmm31,%zmm26,%zmm5
	vpternlogq	$0x96,%zmm8,%zmm24,%zmm0
	vpternlogq	$0x96,%zmm22,%zmm25,%zmm3

	vpxorq	%zmm5,%zmm4,%zmm4
	vpsrldq	$8,%zmm4,%zmm30
	vpslldq	$8,%zmm4,%zmm31
	vpxorq	%zmm30,%zmm0,%zmm0
	vpxorq	%zmm31,%zmm3,%zmm3
	vextracti64x4	$1,%zmm0,%ymm30
	vpxorq	%ymm30,%ymm0,%ymm0
	vextracti32x4	$1,%ymm0,%xmm30
	vpxorq	%xmm30,%xmm0,%xmm0
	vextracti64x4	$1,%zmm3,%ymm31
	vpxorq	%ymm31,%ymm3,%ymm3
	vextracti32x4	$1,%ymm3,%xmm31
	vpxorq	%xmm31,%xmm3,%xmm3
	vmovdqa64	POLY2(%rip),%xmm1


	vpclmulqdq	$0x01,%xmm3,%xmm1,%xmm4
	vpslldq	$8,%xmm4,%xmm4
	vpxorq	%xmm4,%xmm3,%xmm4


	vpclmulqdq	$0x00,%xmm4,%xmm1,%xmm5
	vpsrldq	$4,%xmm5,%xmm5
	vpclmulqdq	$0x10,%xmm4,%xmm1,%xmm14
	vpslldq	$4,%xmm14,%xmm14
	vpternlogq	$0x96,%xmm0,%xmm5,%xmm14

.L_small_initial_compute_done_joAwelAnEceibxf:

	orq	%r8,%r8
	je	.L_after_reduction_joAwelAnEceibxf
	vpxorq	%xmm7,%xmm14,%xmm14
.L_after_reduction_joAwelAnEceibxf:
	jmp	.L_last_blocks_done_iFdBmvaydAEvGwl
.L_last_num_blocks_is_15_iFdBmvaydAEvGwl:
	leaq	byte64_len_to_mask_table(%rip),%r10
	movq	%r8,%r11
	subq	$192,%r11
	kmovq	(%r10,%r11,8),%k1
	cmpl	$241,%r15d
	jae	.L_16_blocks_overflow_GunsmEsuDwaFvtD
	vpaddd	%zmm28,%zmm2,%zmm0
	vpaddd	%zmm27,%zmm0,%zmm3
	vpaddd	%zmm27,%zmm3,%zmm4
	vpaddd	%zmm27,%zmm4,%zmm5
	jmp	.L_16_blocks_ok_GunsmEsuDwaFvtD

.L_16_blocks_overflow_GunsmEsuDwaFvtD:
	vpshufb	%zmm29,%zmm2,%zmm2
	vpaddd	ddq_add_1234(%rip),%zmm2,%zmm0
	vmovdqa64	ddq_add_4444(%rip),%zmm5
	vpaddd	%zmm5,%zmm0,%zmm3
	vpaddd	%zmm5,%zmm3,%zmm4
	vpaddd	%zmm5,%zmm4,%zmm5
	vpshufb	%zmm29,%zmm0,%zmm0
	vpshufb	%zmm29,%zmm3,%zmm3
	vpshufb	%zmm29,%zmm4,%zmm4
	vpshufb	%zmm29,%zmm5,%zmm5
.L_16_blocks_ok_GunsmEsuDwaFvtD:




	vbroadcastf64x2	0(%rdi),%zmm30
	vmovdqa64	1024(%rsp),%zmm8
	vmovdqu64	0(%rsp,%rbx,1),%zmm1
	vextracti32x4	$2,%zmm5,%xmm2
	vshufi64x2	$0,%zmm2,%zmm2,%zmm2


	vbroadcastf64x2	16(%rdi),%zmm31
	vmovdqu64	64(%rsp,%rbx,1),%zmm18
	vmovdqa64	1088(%rsp),%zmm22
	vpxorq	%zmm30,%zmm0,%zmm0
	vpxorq	%zmm30,%zmm3,%zmm3
	vpxorq	%zmm30,%zmm4,%zmm4
	vpxorq	%zmm30,%zmm5,%zmm5
	vbroadcastf64x2	32(%rdi),%zmm30


	vpclmulqdq	$0x11,%zmm1,%zmm8,%zmm14
	vpclmulqdq	$0x00,%zmm1,%zmm8,%zmm7
	vpclmulqdq	$0x01,%zmm1,%zmm8,%zmm10
	vpclmulqdq	$0x10,%zmm1,%zmm8,%zmm11
	vmovdqu64	128(%rsp,%rbx,1),%zmm1
	vmovdqa64	1152(%rsp),%zmm8
	vaesenc	%zmm31,%zmm0,%zmm0
	vaesenc	%zmm31,%zmm3,%zmm3
	vaesenc	%zmm31,%zmm4,%zmm4
	vaesenc	%zmm31,%zmm5,%zmm5
	vbroadcastf64x2	48(%rdi),%zmm31


	vpclmulqdq	$0x10,%zmm18,%zmm22,%zmm15
	vpclmulqdq	$0x01,%zmm18,%zmm22,%zmm16
	vpclmulqdq	$0x11,%zmm18,%zmm22,%zmm12
	vpclmulqdq	$0x00,%zmm18,%zmm22,%zmm13
	vmovdqu64	192(%rsp,%rbx,1),%zmm18
	vmovdqa64	1216(%rsp),%zmm22
	vaesenc	%zmm30,%zmm0,%zmm0
	vaesenc	%zmm30,%zmm3,%zmm3
	vaesenc	%zmm30,%zmm4,%zmm4
	vaesenc	%zmm30,%zmm5,%zmm5
	vbroadcastf64x2	64(%rdi),%zmm30


	vpclmulqdq	$0x10,%zmm1,%zmm8,%zmm20
	vpclmulqdq	$0x01,%zmm1,%zmm8,%zmm21
	vpclmulqdq	$0x11,%zmm1,%zmm8,%zmm17
	vpclmulqdq	$0x00,%zmm1,%zmm8,%zmm19
	vaesenc	%zmm31,%zmm0,%zmm0
	vaesenc	%zmm31,%zmm3,%zmm3
	vaesenc	%zmm31,%zmm4,%zmm4
	vaesenc	%zmm31,%zmm5,%zmm5
	vbroadcastf64x2	80(%rdi),%zmm31


	vpternlogq	$0x96,%zmm17,%zmm12,%zmm14
	vpternlogq	$0x96,%zmm19,%zmm13,%zmm7
	vpternlogq	$0x96,%zmm21,%zmm16,%zmm11
	vpternlogq	$0x96,%zmm20,%zmm15,%zmm10
	vaesenc	%zmm30,%zmm0,%zmm0
	vaesenc	%zmm30,%zmm3,%zmm3
	vaesenc	%zmm30,%zmm4,%zmm4
	vaesenc	%zmm30,%zmm5,%zmm5
	vbroadcastf64x2	96(%rdi),%zmm30
	vmovdqu8	0(%rcx,%rax,1),%zmm17
	vmovdqu8	64(%rcx,%rax,1),%zmm19
	vmovdqu8	128(%rcx,%rax,1),%zmm20
	vmovdqu8	192(%rcx,%rax,1),%zmm21{%k1}{z}
	vaesenc	%zmm31,%zmm0,%zmm0
	vaesenc	%zmm31,%zmm3,%zmm3
	vaesenc	%zmm31,%zmm4,%zmm4
	vaesenc	%zmm31,%zmm5,%zmm5
	vbroadcastf64x2	112(%rdi),%zmm31


	vpclmulqdq	$0x10,%zmm18,%zmm22,%zmm15
	vpclmulqdq	$0x01,%zmm18,%zmm22,%zmm16
	vpclmulqdq	$0x11,%zmm18,%zmm22,%zmm12
	vpclmulqdq	$0x00,%zmm18,%zmm22,%zmm13
	vaesenc	%zmm30,%zmm0,%zmm0
	vaesenc	%zmm30,%zmm3,%zmm3
	vaesenc	%zmm30,%zmm4,%zmm4
	vaesenc	%zmm30,%zmm5,%zmm5
	vbroadcastf64x2	128(%rdi),%zmm30
	vpternlogq	$0x96,%zmm16,%zmm11,%zmm10
	vpternlogq	$0x96,%zmm12,%zmm14,%zmm24
	vpternlogq	$0x96,%zmm13,%zmm7,%zmm25
	vpternlogq	$0x96,%zmm15,%zmm10,%zmm26
	vaesenc	%zmm31,%zmm0,%zmm0
	vaesenc	%zmm31,%zmm3,%zmm3
	vaesenc	%zmm31,%zmm4,%zmm4
	vaesenc	%zmm31,%zmm5,%zmm5
	vbroadcastf64x2	144(%rdi),%zmm31
	vaesenc	%zmm30,%zmm0,%zmm0
	vaesenc	%zmm30,%zmm3,%zmm3
	vaesenc	%zmm30,%zmm4,%zmm4
	vaesenc	%zmm30,%zmm5,%zmm5
	vbroadcastf64x2	160(%rdi),%zmm30
	vaesenc	%zmm31,%zmm0,%zmm0
	vaesenc	%zmm31,%zmm3,%zmm3
	vaesenc	%zmm31,%zmm4,%zmm4
	vaesenc	%zmm31,%zmm5,%zmm5
	vaesenclast	%zmm30,%zmm0,%zmm0
	vaesenclast	%zmm30,%zmm3,%zmm3
	vaesenclast	%zmm30,%zmm4,%zmm4
	vaesenclast	%zmm30,%zmm5,%zmm5
	vpxorq	%zmm17,%zmm0,%zmm0
	vpxorq	%zmm19,%zmm3,%zmm3
	vpxorq	%zmm20,%zmm4,%zmm4
	vpxorq	%zmm21,%zmm5,%zmm5
	vextracti32x4	$2,%zmm5,%xmm11
	movq	%r9,%r10
	vmovdqu8	%zmm0,0(%r10,%rax,1)
	vmovdqu8	%zmm3,64(%r10,%rax,1)
	vmovdqu8	%zmm4,128(%r10,%rax,1)
	vmovdqu8	%zmm5,192(%r10,%rax,1){%k1}
	vmovdqu8	%zmm5,%zmm5{%k1}{z}
	vpshufb	%zmm29,%zmm0,%zmm17
	vpshufb	%zmm29,%zmm3,%zmm19
	vpshufb	%zmm29,%zmm4,%zmm20
	vpshufb	%zmm29,%zmm5,%zmm21
	vextracti32x4	$2,%zmm21,%xmm7
	leaq	96(%rsi),%r10
	subq	$16 * (15 - 1),%r8


	cmpq	$16,%r8
	jl	.L_small_initial_partial_block_jolsngFmxBoozse





	subq	$16,%r8
	movl	$0,(%rdx)
	vmovdqu64	16(%r10),%zmm1
	vpclmulqdq	$0x11,%zmm1,%zmm17,%zmm0
	vpclmulqdq	$0x00,%zmm1,%zmm17,%zmm3
	vpclmulqdq	$0x01,%zmm1,%zmm17,%zmm4
	vpclmulqdq	$0x10,%zmm1,%zmm17,%zmm5
	vmovdqu64	80(%r10),%zmm1
	vpclmulqdq	$0x11,%zmm1,%zmm19,%zmm8
	vpclmulqdq	$0x00,%zmm1,%zmm19,%zmm22
	vpclmulqdq	$0x01,%zmm1,%zmm19,%zmm30
	vpclmulqdq	$0x10,%zmm1,%zmm19,%zmm31
	vmovdqu64	144(%r10),%zmm1
	vpclmulqdq	$0x11,%zmm1,%zmm20,%zmm17
	vpclmulqdq	$0x00,%zmm1,%zmm20,%zmm19
	vpternlogq	$0x96,%zmm0,%zmm17,%zmm8
	vpternlogq	$0x96,%zmm3,%zmm19,%zmm22
	vpclmulqdq	$0x01,%zmm1,%zmm20,%zmm17
	vpclmulqdq	$0x10,%zmm1,%zmm20,%zmm19
	vpternlogq	$0x96,%zmm4,%zmm17,%zmm30
	vpternlogq	$0x96,%zmm5,%zmm19,%zmm31
	vmovdqu64	208(%r10),%ymm1
	vinserti64x2	$2,240(%r10),%zmm1,%zmm1
	vpclmulqdq	$0x01,%zmm1,%zmm21,%zmm4
	vpclmulqdq	$0x10,%zmm1,%zmm21,%zmm5
	vpclmulqdq	$0x11,%zmm1,%zmm21,%zmm0
	vpclmulqdq	$0x00,%zmm1,%zmm21,%zmm3

	vpxorq	%zmm30,%zmm4,%zmm4
	vpternlogq	$0x96,%zmm31,%zmm26,%zmm5
	vpternlogq	$0x96,%zmm8,%zmm24,%zmm0
	vpternlogq	$0x96,%zmm22,%zmm25,%zmm3

	vpxorq	%zmm5,%zmm4,%zmm4
	vpsrldq	$8,%zmm4,%zmm30
	vpslldq	$8,%zmm4,%zmm31
	vpxorq	%zmm30,%zmm0,%zmm0
	vpxorq	%zmm31,%zmm3,%zmm3
	vextracti64x4	$1,%zmm0,%ymm30
	vpxorq	%ymm30,%ymm0,%ymm0
	vextracti32x4	$1,%ymm0,%xmm30
	vpxorq	%xmm30,%xmm0,%xmm0
	vextracti64x4	$1,%zmm3,%ymm31
	vpxorq	%ymm31,%ymm3,%ymm3
	vextracti32x4	$1,%ymm3,%xmm31
	vpxorq	%xmm31,%xmm3,%xmm3
	vmovdqa64	POLY2(%rip),%xmm1


	vpclmulqdq	$0x01,%xmm3,%xmm1,%xmm4
	vpslldq	$8,%xmm4,%xmm4
	vpxorq	%xmm4,%xmm3,%xmm4


	vpclmulqdq	$0x00,%xmm4,%xmm1,%xmm5
	vpsrldq	$4,%xmm5,%xmm5
	vpclmulqdq	$0x10,%xmm4,%xmm1,%xmm14
	vpslldq	$4,%xmm14,%xmm14
	vpternlogq	$0x96,%xmm0,%xmm5,%xmm14

	jmp	.L_small_initial_compute_done_jolsngFmxBoozse
.L_small_initial_partial_block_jolsngFmxBoozse:








	movl	%r8d,(%rdx)
	vmovdqu64	%xmm11,16(%rsi)
	vmovdqu64	32(%r10),%zmm1
	vpclmulqdq	$0x11,%zmm1,%zmm17,%zmm0
	vpclmulqdq	$0x00,%zmm1,%zmm17,%zmm3
	vpclmulqdq	$0x01,%zmm1,%zmm17,%zmm4
	vpclmulqdq	$0x10,%zmm1,%zmm17,%zmm5
	vmovdqu64	96(%r10),%zmm1
	vpclmulqdq	$0x11,%zmm1,%zmm19,%zmm8
	vpclmulqdq	$0x00,%zmm1,%zmm19,%zmm22
	vpclmulqdq	$0x01,%zmm1,%zmm19,%zmm30
	vpclmulqdq	$0x10,%zmm1,%zmm19,%zmm31
	vmovdqu64	160(%r10),%zmm1
	vpclmulqdq	$0x11,%zmm1,%zmm20,%zmm17
	vpclmulqdq	$0x00,%zmm1,%zmm20,%zmm19
	vpternlogq	$0x96,%zmm0,%zmm17,%zmm8
	vpternlogq	$0x96,%zmm3,%zmm19,%zmm22
	vpclmulqdq	$0x01,%zmm1,%zmm20,%zmm17
	vpclmulqdq	$0x10,%zmm1,%zmm20,%zmm19
	vpternlogq	$0x96,%zmm4,%zmm17,%zmm30
	vpternlogq	$0x96,%zmm5,%zmm19,%zmm31
	vmovdqu64	224(%r10),%ymm1
	vpclmulqdq	$0x01,%ymm1,%ymm21,%ymm4
	vpclmulqdq	$0x10,%ymm1,%ymm21,%ymm5
	vpclmulqdq	$0x11,%ymm1,%ymm21,%ymm0
	vpclmulqdq	$0x00,%ymm1,%ymm21,%ymm3

	vpxorq	%zmm30,%zmm4,%zmm4
	vpternlogq	$0x96,%zmm31,%zmm26,%zmm5
	vpternlogq	$0x96,%zmm8,%zmm24,%zmm0
	vpternlogq	$0x96,%zmm22,%zmm25,%zmm3

	vpxorq	%zmm5,%zmm4,%zmm4
	vpsrldq	$8,%zmm4,%zmm30
	vpslldq	$8,%zmm4,%zmm31
	vpxorq	%zmm30,%zmm0,%zmm0
	vpxorq	%zmm31,%zmm3,%zmm3
	vextracti64x4	$1,%zmm0,%ymm30
	vpxorq	%ymm30,%ymm0,%ymm0
	vextracti32x4	$1,%ymm0,%xmm30
	vpxorq	%xmm30,%xmm0,%xmm0
	vextracti64x4	$1,%zmm3,%ymm31
	vpxorq	%ymm31,%ymm3,%ymm3
	vextracti32x4	$1,%ymm3,%xmm31
	vpxorq	%xmm31,%xmm3,%xmm3
	vmovdqa64	POLY2(%rip),%xmm1


	vpclmulqdq	$0x01,%xmm3,%xmm1,%xmm4
	vpslldq	$8,%xmm4,%xmm4
	vpxorq	%xmm4,%xmm3,%xmm4


	vpclmulqdq	$0x00,%xmm4,%xmm1,%xmm5
	vpsrldq	$4,%xmm5,%xmm5
	vpclmulqdq	$0x10,%xmm4,%xmm1,%xmm14
	vpslldq	$4,%xmm14,%xmm14
	vpternlogq	$0x96,%xmm0,%xmm5,%xmm14

.L_small_initial_compute_done_jolsngFmxBoozse:

	orq	%r8,%r8
	je	.L_after_reduction_jolsngFmxBoozse
	vpxorq	%xmm7,%xmm14,%xmm14
.L_after_reduction_jolsngFmxBoozse:
	jmp	.L_last_blocks_done_iFdBmvaydAEvGwl
.L_last_num_blocks_is_16_iFdBmvaydAEvGwl:
	leaq	byte64_len_to_mask_table(%rip),%r10
	movq	%r8,%r11
	subq	$192,%r11
	kmovq	(%r10,%r11,8),%k1
	cmpl	$240,%r15d
	jae	.L_16_blocks_overflow_jpsebqcpcmjAubx
	vpaddd	%zmm28,%zmm2,%zmm0
	vpaddd	%zmm27,%zmm0,%zmm3
	vpaddd	%zmm27,%zmm3,%zmm4
	vpaddd	%zmm27,%zmm4,%zmm5
	jmp	.L_16_blocks_ok_jpsebqcpcmjAubx

.L_16_blocks_overflow_jpsebqcpcmjAubx:
	vpshufb	%zmm29,%zmm2,%zmm2
	vpaddd	ddq_add_1234(%rip),%zmm2,%zmm0
	vmovdqa64	ddq_add_4444(%rip),%zmm5
	vpaddd	%zmm5,%zmm0,%zmm3
	vpaddd	%zmm5,%zmm3,%zmm4
	vpaddd	%zmm5,%zmm4,%zmm5
	vpshufb	%zmm29,%zmm0,%zmm0
	vpshufb	%zmm29,%zmm3,%zmm3
	vpshufb	%zmm29,%zmm4,%zmm4
	vpshufb	%zmm29,%zmm5,%zmm5
.L_16_blocks_ok_jpsebqcpcmjAubx:




	vbroadcastf64x2	0(%rdi),%zmm30
	vmovdqa64	1024(%rsp),%zmm8
	vmovdqu64	0(%rsp,%rbx,1),%zmm1
	vextracti32x4	$3,%zmm5,%xmm2
	vshufi64x2	$0,%zmm2,%zmm2,%zmm2


	vbroadcastf64x2	16(%rdi),%zmm31
	vmovdqu64	64(%rsp,%rbx,1),%zmm18
	vmovdqa64	1088(%rsp),%zmm22
	vpxorq	%zmm30,%zmm0,%zmm0
	vpxorq	%zmm30,%zmm3,%zmm3
	vpxorq	%zmm30,%zmm4,%zmm4
	vpxorq	%zmm30,%zmm5,%zmm5
	vbroadcastf64x2	32(%rdi),%zmm30


	vpclmulqdq	$0x11,%zmm1,%zmm8,%zmm14
	vpclmulqdq	$0x00,%zmm1,%zmm8,%zmm7
	vpclmulqdq	$0x01,%zmm1,%zmm8,%zmm10
	vpclmulqdq	$0x10,%zmm1,%zmm8,%zmm11
	vmovdqu64	128(%rsp,%rbx,1),%zmm1
	vmovdqa64	1152(%rsp),%zmm8
	vaesenc	%zmm31,%zmm0,%zmm0
	vaesenc	%zmm31,%zmm3,%zmm3
	vaesenc	%zmm31,%zmm4,%zmm4
	vaesenc	%zmm31,%zmm5,%zmm5
	vbroadcastf64x2	48(%rdi),%zmm31


	vpclmulqdq	$0x10,%zmm18,%zmm22,%zmm15
	vpclmulqdq	$0x01,%zmm18,%zmm22,%zmm16
	vpclmulqdq	$0x11,%zmm18,%zmm22,%zmm12
	vpclmulqdq	$0x00,%zmm18,%zmm22,%zmm13
	vmovdqu64	192(%rsp,%rbx,1),%zmm18
	vmovdqa64	1216(%rsp),%zmm22
	vaesenc	%zmm30,%zmm0,%zmm0
	vaesenc	%zmm30,%zmm3,%zmm3
	vaesenc	%zmm30,%zmm4,%zmm4
	vaesenc	%zmm30,%zmm5,%zmm5
	vbroadcastf64x2	64(%rdi),%zmm30


	vpclmulqdq	$0x10,%zmm1,%zmm8,%zmm20
	vpclmulqdq	$0x01,%zmm1,%zmm8,%zmm21
	vpclmulqdq	$0x11,%zmm1,%zmm8,%zmm17
	vpclmulqdq	$0x00,%zmm1,%zmm8,%zmm19
	vaesenc	%zmm31,%zmm0,%zmm0
	vaesenc	%zmm31,%zmm3,%zmm3
	vaesenc	%zmm31,%zmm4,%zmm4
	vaesenc	%zmm31,%zmm5,%zmm5
	vbroadcastf64x2	80(%rdi),%zmm31


	vpternlogq	$0x96,%zmm17,%zmm12,%zmm14
	vpternlogq	$0x96,%zmm19,%zmm13,%zmm7
	vpternlogq	$0x96,%zmm21,%zmm16,%zmm11
	vpternlogq	$0x96,%zmm20,%zmm15,%zmm10
	vaesenc	%zmm30,%zmm0,%zmm0
	vaesenc	%zmm30,%zmm3,%zmm3
	vaesenc	%zmm30,%zmm4,%zmm4
	vaesenc	%zmm30,%zmm5,%zmm5
	vbroadcastf64x2	96(%rdi),%zmm30
	vmovdqu8	0(%rcx,%rax,1),%zmm17
	vmovdqu8	64(%rcx,%rax,1),%zmm19
	vmovdqu8	128(%rcx,%rax,1),%zmm20
	vmovdqu8	192(%rcx,%rax,1),%zmm21{%k1}{z}
	vaesenc	%zmm31,%zmm0,%zmm0
	vaesenc	%zmm31,%zmm3,%zmm3
	vaesenc	%zmm31,%zmm4,%zmm4
	vaesenc	%zmm31,%zmm5,%zmm5
	vbroadcastf64x2	112(%rdi),%zmm31


	vpclmulqdq	$0x10,%zmm18,%zmm22,%zmm15
	vpclmulqdq	$0x01,%zmm18,%zmm22,%zmm16
	vpclmulqdq	$0x11,%zmm18,%zmm22,%zmm12
	vpclmulqdq	$0x00,%zmm18,%zmm22,%zmm13
	vaesenc	%zmm30,%zmm0,%zmm0
	vaesenc	%zmm30,%zmm3,%zmm3
	vaesenc	%zmm30,%zmm4,%zmm4
	vaesenc	%zmm30,%zmm5,%zmm5
	vbroadcastf64x2	128(%rdi),%zmm30
	vpternlogq	$0x96,%zmm16,%zmm11,%zmm10
	vpternlogq	$0x96,%zmm12,%zmm14,%zmm24
	vpternlogq	$0x96,%zmm13,%zmm7,%zmm25
	vpternlogq	$0x96,%zmm15,%zmm10,%zmm26
	vaesenc	%zmm31,%zmm0,%zmm0
	vaesenc	%zmm31,%zmm3,%zmm3
	vaesenc	%zmm31,%zmm4,%zmm4
	vaesenc	%zmm31,%zmm5,%zmm5
	vbroadcastf64x2	144(%rdi),%zmm31
	vaesenc	%zmm30,%zmm0,%zmm0
	vaesenc	%zmm30,%zmm3,%zmm3
	vaesenc	%zmm30,%zmm4,%zmm4
	vaesenc	%zmm30,%zmm5,%zmm5
	vbroadcastf64x2	160(%rdi),%zmm30
	vaesenc	%zmm31,%zmm0,%zmm0
	vaesenc	%zmm31,%zmm3,%zmm3
	vaesenc	%zmm31,%zmm4,%zmm4
	vaesenc	%zmm31,%zmm5,%zmm5
	vaesenclast	%zmm30,%zmm0,%zmm0
	vaesenclast	%zmm30,%zmm3,%zmm3
	vaesenclast	%zmm30,%zmm4,%zmm4
	vaesenclast	%zmm30,%zmm5,%zmm5
	vpxorq	%zmm17,%zmm0,%zmm0
	vpxorq	%zmm19,%zmm3,%zmm3
	vpxorq	%zmm20,%zmm4,%zmm4
	vpxorq	%zmm21,%zmm5,%zmm5
	vextracti32x4	$3,%zmm5,%xmm11
	movq	%r9,%r10
	vmovdqu8	%zmm0,0(%r10,%rax,1)
	vmovdqu8	%zmm3,64(%r10,%rax,1)
	vmovdqu8	%zmm4,128(%r10,%rax,1)
	vmovdqu8	%zmm5,192(%r10,%rax,1){%k1}
	vmovdqu8	%zmm5,%zmm5{%k1}{z}
	vpshufb	%zmm29,%zmm0,%zmm17
	vpshufb	%zmm29,%zmm3,%zmm19
	vpshufb	%zmm29,%zmm4,%zmm20
	vpshufb	%zmm29,%zmm5,%zmm21
	vextracti32x4	$3,%zmm21,%xmm7
	leaq	96(%rsi),%r10
	subq	$16 * (16 - 1),%r8
.L_small_initial_partial_block_luhacssrpFAxDGg:








	movl	%r8d,(%rdx)
	vmovdqu64	%xmm11,16(%rsi)
	vmovdqu64	16(%r10),%zmm1
	vpclmulqdq	$0x11,%zmm1,%zmm17,%zmm0
	vpclmulqdq	$0x00,%zmm1,%zmm17,%zmm3
	vpclmulqdq	$0x01,%zmm1,%zmm17,%zmm4
	vpclmulqdq	$0x10,%zmm1,%zmm17,%zmm5
	vmovdqu64	80(%r10),%zmm1
	vpclmulqdq	$0x11,%zmm1,%zmm19,%zmm8
	vpclmulqdq	$0x00,%zmm1,%zmm19,%zmm22
	vpclmulqdq	$0x01,%zmm1,%zmm19,%zmm30
	vpclmulqdq	$0x10,%zmm1,%zmm19,%zmm31
	vmovdqu64	144(%r10),%zmm1
	vpclmulqdq	$0x11,%zmm1,%zmm20,%zmm17
	vpclmulqdq	$0x00,%zmm1,%zmm20,%zmm19
	vpternlogq	$0x96,%zmm0,%zmm17,%zmm8
	vpternlogq	$0x96,%zmm3,%zmm19,%zmm22
	vpclmulqdq	$0x01,%zmm1,%zmm20,%zmm17
	vpclmulqdq	$0x10,%zmm1,%zmm20,%zmm19
	vpternlogq	$0x96,%zmm4,%zmm17,%zmm30
	vpternlogq	$0x96,%zmm5,%zmm19,%zmm31
	vmovdqu64	208(%r10),%ymm1
	vinserti64x2	$2,240(%r10),%zmm1,%zmm1
	vpclmulqdq	$0x01,%zmm1,%zmm21,%zmm4
	vpclmulqdq	$0x10,%zmm1,%zmm21,%zmm5
	vpclmulqdq	$0x11,%zmm1,%zmm21,%zmm0
	vpclmulqdq	$0x00,%zmm1,%zmm21,%zmm3

	vpxorq	%zmm30,%zmm4,%zmm4
	vpternlogq	$0x96,%zmm31,%zmm26,%zmm5
	vpternlogq	$0x96,%zmm8,%zmm24,%zmm0
	vpternlogq	$0x96,%zmm22,%zmm25,%zmm3

	vpxorq	%zmm5,%zmm4,%zmm4
	vpsrldq	$8,%zmm4,%zmm30
	vpslldq	$8,%zmm4,%zmm31
	vpxorq	%zmm30,%zmm0,%zmm0
	vpxorq	%zmm31,%zmm3,%zmm3
	vextracti64x4	$1,%zmm0,%ymm30
	vpxorq	%ymm30,%ymm0,%ymm0
	vextracti32x4	$1,%ymm0,%xmm30
	vpxorq	%xmm30,%xmm0,%xmm0
	vextracti64x4	$1,%zmm3,%ymm31
	vpxorq	%ymm31,%ymm3,%ymm3
	vextracti32x4	$1,%ymm3,%xmm31
	vpxorq	%xmm31,%xmm3,%xmm3
	vmovdqa64	POLY2(%rip),%xmm1


	vpclmulqdq	$0x01,%xmm3,%xmm1,%xmm4
	vpslldq	$8,%xmm4,%xmm4
	vpxorq	%xmm4,%xmm3,%xmm4


	vpclmulqdq	$0x00,%xmm4,%xmm1,%xmm5
	vpsrldq	$4,%xmm5,%xmm5
	vpclmulqdq	$0x10,%xmm4,%xmm1,%xmm14
	vpslldq	$4,%xmm14,%xmm14
	vpternlogq	$0x96,%xmm0,%xmm5,%xmm14

.L_small_initial_compute_done_luhacssrpFAxDGg:
	vpxorq	%xmm7,%xmm14,%xmm14
.L_after_reduction_luhacssrpFAxDGg:
	jmp	.L_last_blocks_done_iFdBmvaydAEvGwl
.L_last_num_blocks_is_0_iFdBmvaydAEvGwl:
	vmovdqa64	1024(%rsp),%zmm13
	vmovdqu64	0(%rsp,%rbx,1),%zmm12
	vpclmulqdq	$0x11,%zmm12,%zmm13,%zmm0
	vpclmulqdq	$0x00,%zmm12,%zmm13,%zmm3
	vpclmulqdq	$0x01,%zmm12,%zmm13,%zmm4
	vpclmulqdq	$0x10,%zmm12,%zmm13,%zmm5
	vmovdqa64	1088(%rsp),%zmm13
	vmovdqu64	64(%rsp,%rbx,1),%zmm12
	vpclmulqdq	$0x11,%zmm12,%zmm13,%zmm6
	vpclmulqdq	$0x00,%zmm12,%zmm13,%zmm7
	vpclmulqdq	$0x01,%zmm12,%zmm13,%zmm10
	vpclmulqdq	$0x10,%zmm12,%zmm13,%zmm11
	vpternlogq	$0x96,%zmm10,%zmm4,%zmm26
	vpternlogq	$0x96,%zmm6,%zmm0,%zmm24
	vpternlogq	$0x96,%zmm7,%zmm3,%zmm25
	vpternlogq	$0x96,%zmm11,%zmm5,%zmm26
	vmovdqa64	1152(%rsp),%zmm13
	vmovdqu64	128(%rsp,%rbx,1),%zmm12
	vpclmulqdq	$0x11,%zmm12,%zmm13,%zmm0
	vpclmulqdq	$0x00,%zmm12,%zmm13,%zmm3
	vpclmulqdq	$0x01,%zmm12,%zmm13,%zmm4
	vpclmulqdq	$0x10,%zmm12,%zmm13,%zmm5
	vmovdqa64	1216(%rsp),%zmm13
	vmovdqu64	192(%rsp,%rbx,1),%zmm12
	vpclmulqdq	$0x11,%zmm12,%zmm13,%zmm6
	vpclmulqdq	$0x00,%zmm12,%zmm13,%zmm7
	vpclmulqdq	$0x01,%zmm12,%zmm13,%zmm10
	vpclmulqdq	$0x10,%zmm12,%zmm13,%zmm11

	vpternlogq	$0x96,%zmm10,%zmm4,%zmm26
	vpternlogq	$0x96,%zmm6,%zmm0,%zmm24
	vpternlogq	$0x96,%zmm7,%zmm3,%zmm25
	vpternlogq	$0x96,%zmm11,%zmm5,%zmm26

	vpsrldq	$8,%zmm26,%zmm0
	vpslldq	$8,%zmm26,%zmm3
	vpxorq	%zmm0,%zmm24,%zmm24
	vpxorq	%zmm3,%zmm25,%zmm25
	vextracti64x4	$1,%zmm24,%ymm0
	vpxorq	%ymm0,%ymm24,%ymm24
	vextracti32x4	$1,%ymm24,%xmm0
	vpxorq	%xmm0,%xmm24,%xmm24
	vextracti64x4	$1,%zmm25,%ymm3
	vpxorq	%ymm3,%ymm25,%ymm25
	vextracti32x4	$1,%ymm25,%xmm3
	vpxorq	%xmm3,%xmm25,%xmm25
	vmovdqa64	POLY2(%rip),%xmm4


	vpclmulqdq	$0x01,%xmm25,%xmm4,%xmm0
	vpslldq	$8,%xmm0,%xmm0
	vpxorq	%xmm0,%xmm25,%xmm0


	vpclmulqdq	$0x00,%xmm0,%xmm4,%xmm3
	vpsrldq	$4,%xmm3,%xmm3
	vpclmulqdq	$0x10,%xmm0,%xmm4,%xmm14
	vpslldq	$4,%xmm14,%xmm14
	vpternlogq	$0x96,%xmm24,%xmm3,%xmm14

.L_last_blocks_done_iFdBmvaydAEvGwl:
	vpshufb	%xmm29,%xmm2,%xmm2
	jmp	.L_ghash_done_azipfweEtBGedwu
.L_encrypt_32_blocks_azipfweEtBGedwu:
	cmpb	$240,%r15b
	jae	.L_16_blocks_overflow_dxjgvcrwoAsksxF
	vpaddd	%zmm28,%zmm2,%zmm0
	vpaddd	%zmm27,%zmm0,%zmm3
	vpaddd	%zmm27,%zmm3,%zmm4
	vpaddd	%zmm27,%zmm4,%zmm5
	jmp	.L_16_blocks_ok_dxjgvcrwoAsksxF
.L_16_blocks_overflow_dxjgvcrwoAsksxF:
	vpshufb	%zmm29,%zmm2,%zmm2
	vmovdqa64	ddq_add_4444(%rip),%zmm5
	vpaddd	ddq_add_1234(%rip),%zmm2,%zmm0
	vpaddd	%zmm5,%zmm0,%zmm3
	vpaddd	%zmm5,%zmm3,%zmm4
	vpaddd	%zmm5,%zmm4,%zmm5
	vpshufb	%zmm29,%zmm0,%zmm0
	vpshufb	%zmm29,%zmm3,%zmm3
	vpshufb	%zmm29,%zmm4,%zmm4
	vpshufb	%zmm29,%zmm5,%zmm5
.L_16_blocks_ok_dxjgvcrwoAsksxF:
	vbroadcastf64x2	0(%rdi),%zmm30
	vpxorq	768(%rsp),%zmm14,%zmm8
	vmovdqu64	0(%rsp),%zmm1




	vshufi64x2	$255,%zmm5,%zmm5,%zmm2
	addb	$16,%r15b


	vbroadcastf64x2	16(%rdi),%zmm31
	vmovdqu64	64(%rsp),%zmm18
	vmovdqa64	832(%rsp),%zmm22







	vpxorq	%zmm30,%zmm0,%zmm0
	vpxorq	%zmm30,%zmm3,%zmm3
	vpxorq	%zmm30,%zmm4,%zmm4
	vpxorq	%zmm30,%zmm5,%zmm5
	vbroadcastf64x2	32(%rdi),%zmm30



	vpclmulqdq	$0x11,%zmm1,%zmm8,%zmm6
	vpclmulqdq	$0x00,%zmm1,%zmm8,%zmm7
	vpclmulqdq	$0x01,%zmm1,%zmm8,%zmm10
	vpclmulqdq	$0x10,%zmm1,%zmm8,%zmm11
	vmovdqu64	128(%rsp),%zmm1
	vmovdqa64	896(%rsp),%zmm8



	vaesenc	%zmm31,%zmm0,%zmm0
	vaesenc	%zmm31,%zmm3,%zmm3
	vaesenc	%zmm31,%zmm4,%zmm4
	vaesenc	%zmm31,%zmm5,%zmm5
	vbroadcastf64x2	48(%rdi),%zmm31



	vpclmulqdq	$0x10,%zmm18,%zmm22,%zmm15
	vpclmulqdq	$0x01,%zmm18,%zmm22,%zmm16
	vpclmulqdq	$0x11,%zmm18,%zmm22,%zmm12
	vpclmulqdq	$0x00,%zmm18,%zmm22,%zmm13
	vmovdqu64	192(%rsp),%zmm18
	vmovdqa64	960(%rsp),%zmm22



	vaesenc	%zmm30,%zmm0,%zmm0
	vaesenc	%zmm30,%zmm3,%zmm3
	vaesenc	%zmm30,%zmm4,%zmm4
	vaesenc	%zmm30,%zmm5,%zmm5
	vbroadcastf64x2	64(%rdi),%zmm30



	vpclmulqdq	$0x10,%zmm1,%zmm8,%zmm20
	vpclmulqdq	$0x01,%zmm1,%zmm8,%zmm21
	vpclmulqdq	$0x11,%zmm1,%zmm8,%zmm17
	vpclmulqdq	$0x00,%zmm1,%zmm8,%zmm19


	vaesenc	%zmm31,%zmm0,%zmm0
	vaesenc	%zmm31,%zmm3,%zmm3
	vaesenc	%zmm31,%zmm4,%zmm4
	vaesenc	%zmm31,%zmm5,%zmm5
	vbroadcastf64x2	80(%rdi),%zmm31



	vpternlogq	$0x96,%zmm17,%zmm12,%zmm6
	vpternlogq	$0x96,%zmm19,%zmm13,%zmm7
	vpternlogq	$0x96,%zmm21,%zmm16,%zmm11
	vpternlogq	$0x96,%zmm20,%zmm15,%zmm10



	vaesenc	%zmm30,%zmm0,%zmm0
	vaesenc	%zmm30,%zmm3,%zmm3
	vaesenc	%zmm30,%zmm4,%zmm4
	vaesenc	%zmm30,%zmm5,%zmm5
	vbroadcastf64x2	96(%rdi),%zmm30



	vmovdqu8	0(%rcx,%rax,1),%zmm17
	vmovdqu8	64(%rcx,%rax,1),%zmm19
	vmovdqu8	128(%rcx,%rax,1),%zmm20
	vmovdqu8	192(%rcx,%rax,1),%zmm21



	vaesenc	%zmm31,%zmm0,%zmm0
	vaesenc	%zmm31,%zmm3,%zmm3
	vaesenc	%zmm31,%zmm4,%zmm4
	vaesenc	%zmm31,%zmm5,%zmm5
	vbroadcastf64x2	112(%rdi),%zmm31



	vpclmulqdq	$0x10,%zmm18,%zmm22,%zmm15
	vpclmulqdq	$0x01,%zmm18,%zmm22,%zmm16
	vpclmulqdq	$0x11,%zmm18,%zmm22,%zmm12
	vpclmulqdq	$0x00,%zmm18,%zmm22,%zmm13


	vaesenc	%zmm30,%zmm0,%zmm0
	vaesenc	%zmm30,%zmm3,%zmm3
	vaesenc	%zmm30,%zmm4,%zmm4
	vaesenc	%zmm30,%zmm5,%zmm5
	vbroadcastf64x2	128(%rdi),%zmm30
	vpternlogq	$0x96,%zmm16,%zmm11,%zmm10
	vpxorq	%zmm15,%zmm10,%zmm26
	vpxorq	%zmm12,%zmm6,%zmm24
	vpxorq	%zmm13,%zmm7,%zmm25
	vaesenc	%zmm31,%zmm0,%zmm0
	vaesenc	%zmm31,%zmm3,%zmm3
	vaesenc	%zmm31,%zmm4,%zmm4
	vaesenc	%zmm31,%zmm5,%zmm5
	vbroadcastf64x2	144(%rdi),%zmm31
	vaesenc	%zmm30,%zmm0,%zmm0
	vaesenc	%zmm30,%zmm3,%zmm3
	vaesenc	%zmm30,%zmm4,%zmm4
	vaesenc	%zmm30,%zmm5,%zmm5
	vbroadcastf64x2	160(%rdi),%zmm30
	vaesenc	%zmm31,%zmm0,%zmm0
	vaesenc	%zmm31,%zmm3,%zmm3
	vaesenc	%zmm31,%zmm4,%zmm4
	vaesenc	%zmm31,%zmm5,%zmm5
	vaesenclast	%zmm30,%zmm0,%zmm0
	vaesenclast	%zmm30,%zmm3,%zmm3
	vaesenclast	%zmm30,%zmm4,%zmm4
	vaesenclast	%zmm30,%zmm5,%zmm5



	vpxorq	%zmm17,%zmm0,%zmm0
	vpxorq	%zmm19,%zmm3,%zmm3
	vpxorq	%zmm20,%zmm4,%zmm4
	vpxorq	%zmm21,%zmm5,%zmm5



	movq	%r9,%r10
	vmovdqu8	%zmm0,0(%r10,%rax,1)
	vmovdqu8	%zmm3,64(%r10,%rax,1)
	vmovdqu8	%zmm4,128(%r10,%rax,1)
	vmovdqu8	%zmm5,192(%r10,%rax,1)
	vpshufb	%zmm29,%zmm0,%zmm0
	vpshufb	%zmm29,%zmm3,%zmm3
	vpshufb	%zmm29,%zmm4,%zmm4
	vpshufb	%zmm29,%zmm5,%zmm5
	vmovdqa64	%zmm0,1280(%rsp)
	vmovdqa64	%zmm3,1344(%rsp)
	vmovdqa64	%zmm4,1408(%rsp)
	vmovdqa64	%zmm5,1472(%rsp)
	cmpb	$240,%r15b
	jae	.L_16_blocks_overflow_eyjwdlixErduGpE
	vpaddd	%zmm28,%zmm2,%zmm0
	vpaddd	%zmm27,%zmm0,%zmm3
	vpaddd	%zmm27,%zmm3,%zmm4
	vpaddd	%zmm27,%zmm4,%zmm5
	jmp	.L_16_blocks_ok_eyjwdlixErduGpE
.L_16_blocks_overflow_eyjwdlixErduGpE:
	vpshufb	%zmm29,%zmm2,%zmm2
	vmovdqa64	ddq_add_4444(%rip),%zmm5
	vpaddd	ddq_add_1234(%rip),%zmm2,%zmm0
	vpaddd	%zmm5,%zmm0,%zmm3
	vpaddd	%zmm5,%zmm3,%zmm4
	vpaddd	%zmm5,%zmm4,%zmm5
	vpshufb	%zmm29,%zmm0,%zmm0
	vpshufb	%zmm29,%zmm3,%zmm3
	vpshufb	%zmm29,%zmm4,%zmm4
	vpshufb	%zmm29,%zmm5,%zmm5
.L_16_blocks_ok_eyjwdlixErduGpE:
	vbroadcastf64x2	0(%rdi),%zmm30
	vmovdqa64	1024(%rsp),%zmm8
	vmovdqu64	256(%rsp),%zmm1




	vshufi64x2	$255,%zmm5,%zmm5,%zmm2
	addb	$16,%r15b


	vbroadcastf64x2	16(%rdi),%zmm31
	vmovdqu64	320(%rsp),%zmm18
	vmovdqa64	1088(%rsp),%zmm22







	vpxorq	%zmm30,%zmm0,%zmm0
	vpxorq	%zmm30,%zmm3,%zmm3
	vpxorq	%zmm30,%zmm4,%zmm4
	vpxorq	%zmm30,%zmm5,%zmm5
	vbroadcastf64x2	32(%rdi),%zmm30



	vpclmulqdq	$0x11,%zmm1,%zmm8,%zmm6
	vpclmulqdq	$0x00,%zmm1,%zmm8,%zmm7
	vpclmulqdq	$0x01,%zmm1,%zmm8,%zmm10
	vpclmulqdq	$0x10,%zmm1,%zmm8,%zmm11
	vmovdqu64	384(%rsp),%zmm1
	vmovdqa64	1152(%rsp),%zmm8



	vaesenc	%zmm31,%zmm0,%zmm0
	vaesenc	%zmm31,%zmm3,%zmm3
	vaesenc	%zmm31,%zmm4,%zmm4
	vaesenc	%zmm31,%zmm5,%zmm5
	vbroadcastf64x2	48(%rdi),%zmm31



	vpclmulqdq	$0x10,%zmm18,%zmm22,%zmm15
	vpclmulqdq	$0x01,%zmm18,%zmm22,%zmm16
	vpclmulqdq	$0x11,%zmm18,%zmm22,%zmm12
	vpclmulqdq	$0x00,%zmm18,%zmm22,%zmm13
	vmovdqu64	448(%rsp),%zmm18
	vmovdqa64	1216(%rsp),%zmm22



	vaesenc	%zmm30,%zmm0,%zmm0
	vaesenc	%zmm30,%zmm3,%zmm3
	vaesenc	%zmm30,%zmm4,%zmm4
	vaesenc	%zmm30,%zmm5,%zmm5
	vbroadcastf64x2	64(%rdi),%zmm30



	vpclmulqdq	$0x10,%zmm1,%zmm8,%zmm20
	vpclmulqdq	$0x01,%zmm1,%zmm8,%zmm21
	vpclmulqdq	$0x11,%zmm1,%zmm8,%zmm17
	vpclmulqdq	$0x00,%zmm1,%zmm8,%zmm19


	vaesenc	%zmm31,%zmm0,%zmm0
	vaesenc	%zmm31,%zmm3,%zmm3
	vaesenc	%zmm31,%zmm4,%zmm4
	vaesenc	%zmm31,%zmm5,%zmm5
	vbroadcastf64x2	80(%rdi),%zmm31



	vpternlogq	$0x96,%zmm17,%zmm12,%zmm6
	vpternlogq	$0x96,%zmm19,%zmm13,%zmm7
	vpternlogq	$0x96,%zmm21,%zmm16,%zmm11
	vpternlogq	$0x96,%zmm20,%zmm15,%zmm10



	vaesenc	%zmm30,%zmm0,%zmm0
	vaesenc	%zmm30,%zmm3,%zmm3
	vaesenc	%zmm30,%zmm4,%zmm4
	vaesenc	%zmm30,%zmm5,%zmm5
	vbroadcastf64x2	96(%rdi),%zmm30



	vmovdqu8	256(%rcx,%rax,1),%zmm17
	vmovdqu8	320(%rcx,%rax,1),%zmm19
	vmovdqu8	384(%rcx,%rax,1),%zmm20
	vmovdqu8	448(%rcx,%rax,1),%zmm21



	vaesenc	%zmm31,%zmm0,%zmm0
	vaesenc	%zmm31,%zmm3,%zmm3
	vaesenc	%zmm31,%zmm4,%zmm4
	vaesenc	%zmm31,%zmm5,%zmm5
	vbroadcastf64x2	112(%rdi),%zmm31



	vpclmulqdq	$0x10,%zmm18,%zmm22,%zmm15
	vpclmulqdq	$0x01,%zmm18,%zmm22,%zmm16
	vpclmulqdq	$0x11,%zmm18,%zmm22,%zmm12
	vpclmulqdq	$0x00,%zmm18,%zmm22,%zmm13


	vaesenc	%zmm30,%zmm0,%zmm0
	vaesenc	%zmm30,%zmm3,%zmm3
	vaesenc	%zmm30,%zmm4,%zmm4
	vaesenc	%zmm30,%zmm5,%zmm5
	vbroadcastf64x2	128(%rdi),%zmm30
	vpternlogq	$0x96,%zmm16,%zmm11,%zmm10
	vpternlogq	$0x96,%zmm15,%zmm10,%zmm26
	vpternlogq	$0x96,%zmm12,%zmm6,%zmm24
	vpternlogq	$0x96,%zmm13,%zmm7,%zmm25
	vaesenc	%zmm31,%zmm0,%zmm0
	vaesenc	%zmm31,%zmm3,%zmm3
	vaesenc	%zmm31,%zmm4,%zmm4
	vaesenc	%zmm31,%zmm5,%zmm5
	vbroadcastf64x2	144(%rdi),%zmm31
	vaesenc	%zmm30,%zmm0,%zmm0
	vaesenc	%zmm30,%zmm3,%zmm3
	vaesenc	%zmm30,%zmm4,%zmm4
	vaesenc	%zmm30,%zmm5,%zmm5
	vbroadcastf64x2	160(%rdi),%zmm30
	vaesenc	%zmm31,%zmm0,%zmm0
	vaesenc	%zmm31,%zmm3,%zmm3
	vaesenc	%zmm31,%zmm4,%zmm4
	vaesenc	%zmm31,%zmm5,%zmm5
	vaesenclast	%zmm30,%zmm0,%zmm0
	vaesenclast	%zmm30,%zmm3,%zmm3
	vaesenclast	%zmm30,%zmm4,%zmm4
	vaesenclast	%zmm30,%zmm5,%zmm5



	vpxorq	%zmm17,%zmm0,%zmm0
	vpxorq	%zmm19,%zmm3,%zmm3
	vpxorq	%zmm20,%zmm4,%zmm4
	vpxorq	%zmm21,%zmm5,%zmm5



	movq	%r9,%r10
	vmovdqu8	%zmm0,256(%r10,%rax,1)
	vmovdqu8	%zmm3,320(%r10,%rax,1)
	vmovdqu8	%zmm4,384(%r10,%rax,1)
	vmovdqu8	%zmm5,448(%r10,%rax,1)
	vpshufb	%zmm29,%zmm0,%zmm0
	vpshufb	%zmm29,%zmm3,%zmm3
	vpshufb	%zmm29,%zmm4,%zmm4
	vpshufb	%zmm29,%zmm5,%zmm5
	vmovdqa64	%zmm0,768(%rsp)
	vmovdqa64	%zmm3,832(%rsp)
	vmovdqa64	%zmm4,896(%rsp)
	vmovdqa64	%zmm5,960(%rsp)
	vmovdqa64	1280(%rsp),%zmm13
	vmovdqu64	512(%rsp),%zmm12
	vpclmulqdq	$0x11,%zmm12,%zmm13,%zmm0
	vpclmulqdq	$0x00,%zmm12,%zmm13,%zmm3
	vpclmulqdq	$0x01,%zmm12,%zmm13,%zmm4
	vpclmulqdq	$0x10,%zmm12,%zmm13,%zmm5
	vmovdqa64	1344(%rsp),%zmm13
	vmovdqu64	576(%rsp),%zmm12
	vpclmulqdq	$0x11,%zmm12,%zmm13,%zmm6
	vpclmulqdq	$0x00,%zmm12,%zmm13,%zmm7
	vpclmulqdq	$0x01,%zmm12,%zmm13,%zmm10
	vpclmulqdq	$0x10,%zmm12,%zmm13,%zmm11
	vpternlogq	$0x96,%zmm10,%zmm4,%zmm26
	vpternlogq	$0x96,%zmm6,%zmm0,%zmm24
	vpternlogq	$0x96,%zmm7,%zmm3,%zmm25
	vpternlogq	$0x96,%zmm11,%zmm5,%zmm26
	vmovdqa64	1408(%rsp),%zmm13
	vmovdqu64	640(%rsp),%zmm12
	vpclmulqdq	$0x11,%zmm12,%zmm13,%zmm0
	vpclmulqdq	$0x00,%zmm12,%zmm13,%zmm3
	vpclmulqdq	$0x01,%zmm12,%zmm13,%zmm4
	vpclmulqdq	$0x10,%zmm12,%zmm13,%zmm5
	vmovdqa64	1472(%rsp),%zmm13
	vmovdqu64	704(%rsp),%zmm12
	vpclmulqdq	$0x11,%zmm12,%zmm13,%zmm6
	vpclmulqdq	$0x00,%zmm12,%zmm13,%zmm7
	vpclmulqdq	$0x01,%zmm12,%zmm13,%zmm10
	vpclmulqdq	$0x10,%zmm12,%zmm13,%zmm11

	vpternlogq	$0x96,%zmm10,%zmm4,%zmm26
	vpternlogq	$0x96,%zmm6,%zmm0,%zmm24
	vpternlogq	$0x96,%zmm7,%zmm3,%zmm25
	vpternlogq	$0x96,%zmm11,%zmm5,%zmm26

	vpsrldq	$8,%zmm26,%zmm0
	vpslldq	$8,%zmm26,%zmm3
	vpxorq	%zmm0,%zmm24,%zmm24
	vpxorq	%zmm3,%zmm25,%zmm25
	vextracti64x4	$1,%zmm24,%ymm0
	vpxorq	%ymm0,%ymm24,%ymm24
	vextracti32x4	$1,%ymm24,%xmm0
	vpxorq	%xmm0,%xmm24,%xmm24
	vextracti64x4	$1,%zmm25,%ymm3
	vpxorq	%ymm3,%ymm25,%ymm25
	vextracti32x4	$1,%ymm25,%xmm3
	vpxorq	%xmm3,%xmm25,%xmm25
	vmovdqa64	POLY2(%rip),%xmm4


	vpclmulqdq	$0x01,%xmm25,%xmm4,%xmm0
	vpslldq	$8,%xmm0,%xmm0
	vpxorq	%xmm0,%xmm25,%xmm0


	vpclmulqdq	$0x00,%xmm0,%xmm4,%xmm3
	vpsrldq	$4,%xmm3,%xmm3
	vpclmulqdq	$0x10,%xmm0,%xmm4,%xmm14
	vpslldq	$4,%xmm14,%xmm14
	vpternlogq	$0x96,%xmm24,%xmm3,%xmm14

	subq	$512,%r8
	addq	$512,%rax
	movl	%r8d,%r10d
	andl	$~15,%r10d
	movl	$512,%ebx
	subl	%r10d,%ebx
	movl	%r8d,%r10d
	addl	$15,%r10d
	shrl	$4,%r10d
	je	.L_last_num_blocks_is_0_xFtDfphalotEAxy

	cmpl	$8,%r10d
	je	.L_last_num_blocks_is_8_xFtDfphalotEAxy
	jb	.L_last_num_blocks_is_7_1_xFtDfphalotEAxy


	cmpl	$12,%r10d
	je	.L_last_num_blocks_is_12_xFtDfphalotEAxy
	jb	.L_last_num_blocks_is_11_9_xFtDfphalotEAxy


	cmpl	$15,%r10d
	je	.L_last_num_blocks_is_15_xFtDfphalotEAxy
	ja	.L_last_num_blocks_is_16_xFtDfphalotEAxy
	cmpl	$14,%r10d
	je	.L_last_num_blocks_is_14_xFtDfphalotEAxy
	jmp	.L_last_num_blocks_is_13_xFtDfphalotEAxy

.L_last_num_blocks_is_11_9_xFtDfphalotEAxy:

	cmpl	$10,%r10d
	je	.L_last_num_blocks_is_10_xFtDfphalotEAxy
	ja	.L_last_num_blocks_is_11_xFtDfphalotEAxy
	jmp	.L_last_num_blocks_is_9_xFtDfphalotEAxy

.L_last_num_blocks_is_7_1_xFtDfphalotEAxy:
	cmpl	$4,%r10d
	je	.L_last_num_blocks_is_4_xFtDfphalotEAxy
	jb	.L_last_num_blocks_is_3_1_xFtDfphalotEAxy

	cmpl	$6,%r10d
	ja	.L_last_num_blocks_is_7_xFtDfphalotEAxy
	je	.L_last_num_blocks_is_6_xFtDfphalotEAxy
	jmp	.L_last_num_blocks_is_5_xFtDfphalotEAxy

.L_last_num_blocks_is_3_1_xFtDfphalotEAxy:

	cmpl	$2,%r10d
	ja	.L_last_num_blocks_is_3_xFtDfphalotEAxy
	je	.L_last_num_blocks_is_2_xFtDfphalotEAxy
.L_last_num_blocks_is_1_xFtDfphalotEAxy:
	leaq	byte64_len_to_mask_table(%rip),%r10
	movq	%r8,%r11
	kmovq	(%r10,%r11,8),%k1
	cmpl	$255,%r15d
	jae	.L_16_blocks_overflow_GjCgddGxbjjwavs
	vpaddd	%xmm28,%xmm2,%xmm0
	jmp	.L_16_blocks_ok_GjCgddGxbjjwavs

.L_16_blocks_overflow_GjCgddGxbjjwavs:
	vpshufb	%zmm29,%zmm2,%zmm2
	vpaddd	ddq_add_1234(%rip),%zmm2,%zmm0
	vpshufb	%xmm29,%xmm0,%xmm0
.L_16_blocks_ok_GjCgddGxbjjwavs:




	vbroadcastf64x2	0(%rdi),%zmm30
	vpxorq	768(%rsp),%zmm14,%zmm8
	vmovdqu64	0(%rsp,%rbx,1),%zmm1
	vextracti32x4	$0,%zmm0,%xmm2
	vshufi64x2	$0,%zmm2,%zmm2,%zmm2


	vbroadcastf64x2	16(%rdi),%zmm31
	vmovdqu64	64(%rsp,%rbx,1),%zmm18
	vmovdqa64	832(%rsp),%zmm22
	vpxorq	%xmm30,%xmm0,%xmm0
	vbroadcastf64x2	32(%rdi),%zmm30


	vpclmulqdq	$0x11,%zmm1,%zmm8,%zmm14
	vpclmulqdq	$0x00,%zmm1,%zmm8,%zmm7
	vpclmulqdq	$0x01,%zmm1,%zmm8,%zmm10
	vpclmulqdq	$0x10,%zmm1,%zmm8,%zmm11
	vmovdqu64	128(%rsp,%rbx,1),%zmm1
	vmovdqa64	896(%rsp),%zmm8
	vaesenc	%xmm31,%xmm0,%xmm0
	vbroadcastf64x2	48(%rdi),%zmm31


	vpclmulqdq	$0x10,%zmm18,%zmm22,%zmm15
	vpclmulqdq	$0x01,%zmm18,%zmm22,%zmm16
	vpclmulqdq	$0x11,%zmm18,%zmm22,%zmm12
	vpclmulqdq	$0x00,%zmm18,%zmm22,%zmm13
	vmovdqu64	192(%rsp,%rbx,1),%zmm18
	vmovdqa64	960(%rsp),%zmm22
	vaesenc	%xmm30,%xmm0,%xmm0
	vbroadcastf64x2	64(%rdi),%zmm30


	vpclmulqdq	$0x10,%zmm1,%zmm8,%zmm20
	vpclmulqdq	$0x01,%zmm1,%zmm8,%zmm21
	vpclmulqdq	$0x11,%zmm1,%zmm8,%zmm17
	vpclmulqdq	$0x00,%zmm1,%zmm8,%zmm19
	vaesenc	%xmm31,%xmm0,%xmm0
	vbroadcastf64x2	80(%rdi),%zmm31


	vpternlogq	$0x96,%zmm17,%zmm12,%zmm14
	vpternlogq	$0x96,%zmm19,%zmm13,%zmm7
	vpternlogq	$0x96,%zmm21,%zmm16,%zmm11
	vpternlogq	$0x96,%zmm20,%zmm15,%zmm10
	vaesenc	%xmm30,%xmm0,%xmm0
	vbroadcastf64x2	96(%rdi),%zmm30
	vmovdqu8	0(%rcx,%rax,1),%xmm17{%k1}{z}
	vaesenc	%xmm31,%xmm0,%xmm0
	vbroadcastf64x2	112(%rdi),%zmm31


	vpclmulqdq	$0x10,%zmm18,%zmm22,%zmm15
	vpclmulqdq	$0x01,%zmm18,%zmm22,%zmm16
	vpclmulqdq	$0x11,%zmm18,%zmm22,%zmm12
	vpclmulqdq	$0x00,%zmm18,%zmm22,%zmm13
	vaesenc	%xmm30,%xmm0,%xmm0
	vbroadcastf64x2	128(%rdi),%zmm30
	vpternlogq	$0x96,%zmm16,%zmm11,%zmm10
	vpxorq	%zmm12,%zmm14,%zmm24
	vpxorq	%zmm13,%zmm7,%zmm25
	vpxorq	%zmm15,%zmm10,%zmm26
	vaesenc	%xmm31,%xmm0,%xmm0
	vbroadcastf64x2	144(%rdi),%zmm31
	vaesenc	%xmm30,%xmm0,%xmm0
	vbroadcastf64x2	160(%rdi),%zmm30
	vaesenc	%xmm31,%xmm0,%xmm0
	vaesenclast	%xmm30,%xmm0,%xmm0
	vpxorq	%xmm17,%xmm0,%xmm0
	vextracti32x4	$0,%zmm0,%xmm11
	movq	%r9,%r10
	vmovdqu8	%xmm0,0(%r10,%rax,1){%k1}
	vmovdqu8	%zmm0,%zmm0{%k1}{z}
	vpshufb	%xmm29,%xmm0,%xmm17
	vextracti32x4	$0,%zmm17,%xmm7
	leaq	96(%rsi),%r10


	cmpq	$16,%r8
	jl	.L_small_initial_partial_block_yvbgewimkbnaqym





	subq	$16,%r8
	movl	$0,(%rdx)
	vmovdqu64	240(%r10),%xmm1
	vpclmulqdq	$0x01,%xmm1,%xmm17,%xmm4
	vpclmulqdq	$0x10,%xmm1,%xmm17,%xmm5
	vpclmulqdq	$0x11,%xmm1,%xmm17,%xmm0
	vpclmulqdq	$0x00,%xmm1,%xmm17,%xmm3
	vpxorq	%zmm26,%zmm4,%zmm4
	vpxorq	%zmm24,%zmm0,%zmm0
	vpxorq	%zmm25,%zmm3,%zmm3

	vpxorq	%zmm5,%zmm4,%zmm4
	vpsrldq	$8,%zmm4,%zmm30
	vpslldq	$8,%zmm4,%zmm31
	vpxorq	%zmm30,%zmm0,%zmm0
	vpxorq	%zmm31,%zmm3,%zmm3
	vextracti64x4	$1,%zmm0,%ymm30
	vpxorq	%ymm30,%ymm0,%ymm0
	vextracti32x4	$1,%ymm0,%xmm30
	vpxorq	%xmm30,%xmm0,%xmm0
	vextracti64x4	$1,%zmm3,%ymm31
	vpxorq	%ymm31,%ymm3,%ymm3
	vextracti32x4	$1,%ymm3,%xmm31
	vpxorq	%xmm31,%xmm3,%xmm3
	vmovdqa64	POLY2(%rip),%xmm1


	vpclmulqdq	$0x01,%xmm3,%xmm1,%xmm4
	vpslldq	$8,%xmm4,%xmm4
	vpxorq	%xmm4,%xmm3,%xmm4


	vpclmulqdq	$0x00,%xmm4,%xmm1,%xmm5
	vpsrldq	$4,%xmm5,%xmm5
	vpclmulqdq	$0x10,%xmm4,%xmm1,%xmm14
	vpslldq	$4,%xmm14,%xmm14
	vpternlogq	$0x96,%xmm0,%xmm5,%xmm14

	jmp	.L_small_initial_compute_done_yvbgewimkbnaqym
.L_small_initial_partial_block_yvbgewimkbnaqym:








	movl	%r8d,(%rdx)
	vmovdqu64	%xmm11,16(%rsi)


	vpsrldq	$8,%zmm26,%zmm0
	vpslldq	$8,%zmm26,%zmm3
	vpxorq	%zmm0,%zmm24,%zmm24
	vpxorq	%zmm3,%zmm25,%zmm25
	vextracti64x4	$1,%zmm24,%ymm0
	vpxorq	%ymm0,%ymm24,%ymm24
	vextracti32x4	$1,%ymm24,%xmm0
	vpxorq	%xmm0,%xmm24,%xmm24
	vextracti64x4	$1,%zmm25,%ymm3
	vpxorq	%ymm3,%ymm25,%ymm25
	vextracti32x4	$1,%ymm25,%xmm3
	vpxorq	%xmm3,%xmm25,%xmm25
	vmovdqa64	POLY2(%rip),%xmm0


	vpclmulqdq	$0x01,%xmm25,%xmm0,%xmm3
	vpslldq	$8,%xmm3,%xmm3
	vpxorq	%xmm3,%xmm25,%xmm3


	vpclmulqdq	$0x00,%xmm3,%xmm0,%xmm4
	vpsrldq	$4,%xmm4,%xmm4
	vpclmulqdq	$0x10,%xmm3,%xmm0,%xmm14
	vpslldq	$4,%xmm14,%xmm14
	vpternlogq	$0x96,%xmm24,%xmm4,%xmm14












	vpxorq	%xmm7,%xmm14,%xmm14

	jmp	.L_after_reduction_yvbgewimkbnaqym
.L_small_initial_compute_done_yvbgewimkbnaqym:
.L_after_reduction_yvbgewimkbnaqym:
	jmp	.L_last_blocks_done_xFtDfphalotEAxy
.L_last_num_blocks_is_2_xFtDfphalotEAxy:
	leaq	byte64_len_to_mask_table(%rip),%r10
	movq	%r8,%r11
	kmovq	(%r10,%r11,8),%k1
	cmpl	$254,%r15d
	jae	.L_16_blocks_overflow_GvnAxEmofmDmyjx
	vpaddd	%ymm28,%ymm2,%ymm0
	jmp	.L_16_blocks_ok_GvnAxEmofmDmyjx

.L_16_blocks_overflow_GvnAxEmofmDmyjx:
	vpshufb	%zmm29,%zmm2,%zmm2
	vpaddd	ddq_add_1234(%rip),%zmm2,%zmm0
	vpshufb	%ymm29,%ymm0,%ymm0
.L_16_blocks_ok_GvnAxEmofmDmyjx:




	vbroadcastf64x2	0(%rdi),%zmm30
	vpxorq	768(%rsp),%zmm14,%zmm8
	vmovdqu64	0(%rsp,%rbx,1),%zmm1
	vextracti32x4	$1,%zmm0,%xmm2
	vshufi64x2	$0,%zmm2,%zmm2,%zmm2


	vbroadcastf64x2	16(%rdi),%zmm31
	vmovdqu64	64(%rsp,%rbx,1),%zmm18
	vmovdqa64	832(%rsp),%zmm22
	vpxorq	%ymm30,%ymm0,%ymm0
	vbroadcastf64x2	32(%rdi),%zmm30


	vpclmulqdq	$0x11,%zmm1,%zmm8,%zmm14
	vpclmulqdq	$0x00,%zmm1,%zmm8,%zmm7
	vpclmulqdq	$0x01,%zmm1,%zmm8,%zmm10
	vpclmulqdq	$0x10,%zmm1,%zmm8,%zmm11
	vmovdqu64	128(%rsp,%rbx,1),%zmm1
	vmovdqa64	896(%rsp),%zmm8
	vaesenc	%ymm31,%ymm0,%ymm0
	vbroadcastf64x2	48(%rdi),%zmm31


	vpclmulqdq	$0x10,%zmm18,%zmm22,%zmm15
	vpclmulqdq	$0x01,%zmm18,%zmm22,%zmm16
	vpclmulqdq	$0x11,%zmm18,%zmm22,%zmm12
	vpclmulqdq	$0x00,%zmm18,%zmm22,%zmm13
	vmovdqu64	192(%rsp,%rbx,1),%zmm18
	vmovdqa64	960(%rsp),%zmm22
	vaesenc	%ymm30,%ymm0,%ymm0
	vbroadcastf64x2	64(%rdi),%zmm30


	vpclmulqdq	$0x10,%zmm1,%zmm8,%zmm20
	vpclmulqdq	$0x01,%zmm1,%zmm8,%zmm21
	vpclmulqdq	$0x11,%zmm1,%zmm8,%zmm17
	vpclmulqdq	$0x00,%zmm1,%zmm8,%zmm19
	vaesenc	%ymm31,%ymm0,%ymm0
	vbroadcastf64x2	80(%rdi),%zmm31


	vpternlogq	$0x96,%zmm17,%zmm12,%zmm14
	vpternlogq	$0x96,%zmm19,%zmm13,%zmm7
	vpternlogq	$0x96,%zmm21,%zmm16,%zmm11
	vpternlogq	$0x96,%zmm20,%zmm15,%zmm10
	vaesenc	%ymm30,%ymm0,%ymm0
	vbroadcastf64x2	96(%rdi),%zmm30
	vmovdqu8	0(%rcx,%rax,1),%ymm17{%k1}{z}
	vaesenc	%ymm31,%ymm0,%ymm0
	vbroadcastf64x2	112(%rdi),%zmm31


	vpclmulqdq	$0x10,%zmm18,%zmm22,%zmm15
	vpclmulqdq	$0x01,%zmm18,%zmm22,%zmm16
	vpclmulqdq	$0x11,%zmm18,%zmm22,%zmm12
	vpclmulqdq	$0x00,%zmm18,%zmm22,%zmm13
	vaesenc	%ymm30,%ymm0,%ymm0
	vbroadcastf64x2	128(%rdi),%zmm30
	vpternlogq	$0x96,%zmm16,%zmm11,%zmm10
	vpxorq	%zmm12,%zmm14,%zmm24
	vpxorq	%zmm13,%zmm7,%zmm25
	vpxorq	%zmm15,%zmm10,%zmm26
	vaesenc	%ymm31,%ymm0,%ymm0
	vbroadcastf64x2	144(%rdi),%zmm31
	vaesenc	%ymm30,%ymm0,%ymm0
	vbroadcastf64x2	160(%rdi),%zmm30
	vaesenc	%ymm31,%ymm0,%ymm0
	vaesenclast	%ymm30,%ymm0,%ymm0
	vpxorq	%ymm17,%ymm0,%ymm0
	vextracti32x4	$1,%zmm0,%xmm11
	movq	%r9,%r10
	vmovdqu8	%ymm0,0(%r10,%rax,1){%k1}
	vmovdqu8	%zmm0,%zmm0{%k1}{z}
	vpshufb	%ymm29,%ymm0,%ymm17
	vextracti32x4	$1,%zmm17,%xmm7
	leaq	96(%rsi),%r10
	subq	$16 * (2 - 1),%r8


	cmpq	$16,%r8
	jl	.L_small_initial_partial_block_jnGyzljGogczzFl





	subq	$16,%r8
	movl	$0,(%rdx)
	vmovdqu64	224(%r10),%ymm1
	vpclmulqdq	$0x01,%ymm1,%ymm17,%ymm4
	vpclmulqdq	$0x10,%ymm1,%ymm17,%ymm5
	vpclmulqdq	$0x11,%ymm1,%ymm17,%ymm0
	vpclmulqdq	$0x00,%ymm1,%ymm17,%ymm3
	vpxorq	%zmm26,%zmm4,%zmm4
	vpxorq	%zmm24,%zmm0,%zmm0
	vpxorq	%zmm25,%zmm3,%zmm3

	vpxorq	%zmm5,%zmm4,%zmm4
	vpsrldq	$8,%zmm4,%zmm30
	vpslldq	$8,%zmm4,%zmm31
	vpxorq	%zmm30,%zmm0,%zmm0
	vpxorq	%zmm31,%zmm3,%zmm3
	vextracti64x4	$1,%zmm0,%ymm30
	vpxorq	%ymm30,%ymm0,%ymm0
	vextracti32x4	$1,%ymm0,%xmm30
	vpxorq	%xmm30,%xmm0,%xmm0
	vextracti64x4	$1,%zmm3,%ymm31
	vpxorq	%ymm31,%ymm3,%ymm3
	vextracti32x4	$1,%ymm3,%xmm31
	vpxorq	%xmm31,%xmm3,%xmm3
	vmovdqa64	POLY2(%rip),%xmm1


	vpclmulqdq	$0x01,%xmm3,%xmm1,%xmm4
	vpslldq	$8,%xmm4,%xmm4
	vpxorq	%xmm4,%xmm3,%xmm4


	vpclmulqdq	$0x00,%xmm4,%xmm1,%xmm5
	vpsrldq	$4,%xmm5,%xmm5
	vpclmulqdq	$0x10,%xmm4,%xmm1,%xmm14
	vpslldq	$4,%xmm14,%xmm14
	vpternlogq	$0x96,%xmm0,%xmm5,%xmm14

